(dp0
I0
(lp1
I1461251089
aI1
aF0.9997026906430498
aF2583.622100010747
asI1
(lp2
I1461251089
aI1
aF0.9997236180637118
aF2594.635017322231
asI2
(lp3
I1461251090
aI1
aF0.9997370787298577
aF2616.671978467464
asI3
(lp4
I1461251090
aI1
aF0.9997190513528025
aF2615.8742765059287
asI4
(lp5
I1461251091
aI1
aF0.9997020099565527
aF2621.9288433671754
asI5
(lp6
I1461251091
aI1
aF0.9997090302924078
aF2611.9882383062213
asI6
(lp7
I1461251092
aI1
aF0.9997067896092623
aF2601.2834606008983
asI7
(lp8
I1461251092
aI1
aF0.9997107082439692
aF2577.7471269092784
asI8
(lp9
I1461251093
aI1
aF0.9997036089188712
aF2587.759417404275
asI9
(lp10
I1461251093
aI1
aF0.9997045229475713
aF2591.537660325048
asI10
(lp11
I1461251094
aI1
aF0.9997315684807672
aF2589.542886190684
asI11
(lp12
I1461251094
aI1
aF0.9996563163583622
aF2593.448178530729
asI12
(lp13
I1461251095
aI1
aF0.9997059372009848
aF2556.1645753516495
asI13
(lp14
I1461251095
aI1
aF0.9997136037985169
aF2590.912908494065
asI14
(lp15
I1461251096
aI1
aF0.9996822951190546
aF2578.2363578487275
asI15
(lp16
I1461251096
aI1
aF0.9997128776326163
aF2545.8068689161446
asI16
(lp17
I1461251097
aI1
aF0.9996446339617708
aF2550.4674037769437
asI17
(lp18
I1461251097
aI1
aF0.9996640182594204
aF2584.7216616247315
asI18
(lp19
I1461251098
aI1
aF0.9997216910018452
aF2585.5708588007838
asI19
(lp20
I1461251098
aI1
aF0.9997045523619519
aF2550.484899948351
asI20
(lp21
I1461251099
aI1
aF0.9996587589849365
aF2564.5354973939247
asI21
(lp22
I1461251099
aI1
aF0.9996474033711603
aF2560.583370311535
asI22
(lp23
I1461251099
aI1
aF0.9996706640520799
aF2571.4316532117955
asI23
(lp24
I1461251100
aI1
aF0.9997378806146814
aF2620.4269601188425
asI24
(lp25
I1461251100
aI1
aF0.9996790681119001
aF2565.7344498423627
asI25
(lp26
I1461251101
aI1
aF0.9997131030391008
aF2546.58918320504
asI26
(lp27
I1461251101
aI1
aF0.9996963791596553
aF2556.3594938605092
asI27
(lp28
I1461251102
aI1
aF0.9997108369670495
aF2536.2447883905115
asI28
(lp29
I1461251102
aI1
aF0.9997113803332833
aF2580.3688123904867
asI29
(lp30
I1461251103
aI1
aF0.9997392751137675
aF2627.8497515781055
asI30
(lp31
I1461251103
aI1
aF0.9996341109448146
aF2550.2520184491004
asI31
(lp32
I1461251104
aI1
aF0.9996903122554973
aF2571.9029806185426
asI32
(lp33
I1461251104
aI1
aF0.9997015181199904
aF2537.491860890441
asI33
(lp34
I1461251105
aI1
aF0.9996729566120577
aF2580.5801725982747
asI34
(lp35
I1461251105
aI1
aF0.9996488513122262
aF2603.3299361927493
asI35
(lp36
I1461251106
aI1
aF0.9545061439994146
aF2596.173776910058
asI36
(lp37
I1461251106
aI1
aF0.9996909816940208
aF2614.225405033445
asI37
(lp38
I1461251107
aI1
aF0.9997006088571007
aF2574.6817031058163
asI38
(lp39
I1461251107
aI1
aF0.9996744717141322
aF2586.93057851895
asI39
(lp40
I1461251108
aI1
aF0.9996437967759988
aF2547.5211974702834
asI40
(lp41
I1461251108
aI1
aF0.9996594738271275
aF2605.386184857489
asI41
(lp42
I1461251109
aI1
aF0.9996667892018798
aF2556.5245439235587
asI42
(lp43
I1461251109
aI1
aF0.9997354638829588
aF2608.3360558501445
asI43
(lp44
I1461251109
aI1
aF0.9996985712089403
aF2606.1937741251895
asI44
(lp45
I1461251110
aI1
aF0.9996966164872584
aF2557.012267903425
asI45
(lp46
I1461251110
aI1
aF0.9996852677032295
aF2630.677754078715
asI46
(lp47
I1461251111
aI1
aF0.9996683936477236
aF2601.870484651183
asI47
(lp48
I1461251111
aI1
aF0.9996612956340657
aF2612.609730201424
asI48
(lp49
I1461251112
aI1
aF0.9996837069465815
aF2544.8330894061364
asI49
(lp50
I1461251112
aI1
aF0.999705015059761
aF2552.2072615474463
asI50
(lp51
I1461251113
aI1
aF0.9996967128221311
aF2598.931396304979
asI51
(lp52
I1461251113
aI1
aF0.9996688642454864
aF2564.038166555285
asI52
(lp53
I1461251114
aI1
aF0.9997042698715286
aF2631.7005052473396
asI53
(lp54
I1461251114
aI1
aF0.9997133281802931
aF2547.587267810013
asI54
(lp55
I1461251115
aI1
aF0.9997173468422765
aF2523.4905748749734
asI55
(lp56
I1461251115
aI1
aF0.9996783164377654
aF2562.241429905407
asI56
(lp57
I1461251116
aI1
aF0.9996910867000139
aF2534.140184213684
asI57
(lp58
I1461251116
aI1
aF0.9997173358272247
aF2565.7970059768268
asI58
(lp59
I1461251117
aI1
aF0.9996834582599525
aF2543.052239108263
asI59
(lp60
I1461251117
aI1
aF0.9996831035633404
aF2621.8999894697627
asI60
(lp61
I1461251118
aI1
aF0.9996905529116681
aF2572.312389108207
asI61
(lp62
I1461251118
aI1
aF0.9996810597461543
aF2573.036198804941
asI62
(lp63
I1461251119
aI1
aF0.9527988065756089
aF2564.519760904368
asI63
(lp64
I1461251119
aI1
aF0.999680451005278
aF2531.260800334174
asI64
(lp65
I1461251120
aI1
aF0.999715801672332
aF2600.0653536296886
asI65
(lp66
I1461251120
aI1
aF0.9996380935416102
aF2564.547781558882
asI66
(lp67
I1461251121
aI1
aF0.9997336293354697
aF2599.786629355629
asI67
(lp68
I1461251121
aI1
aF0.9996930271261446
aF2542.845301929585
asI68
(lp69
I1461251122
aI1
aF0.9997280374578282
aF2615.5352857000253
asI69
(lp70
I1461251122
aI1
aF0.9996907932874728
aF2573.572041566542
asI70
(lp71
I1461251123
aI1
aF0.9997076889776324
aF2605.0545966408245
asI71
(lp72
I1461251123
aI1
aF0.9996683473052456
aF2562.7486965502612
asI72
(lp73
I1461251124
aI1
aF0.9997110647800226
aF2537.4743081629276
asI73
(lp74
I1461251124
aI1
aF0.9996536514722212
aF2583.4780429003004
asI74
(lp75
I1461251125
aI1
aF0.9997151449738658
aF2597.1590391710924
asI75
(lp76
I1461251125
aI1
aF0.9996531147772106
aF2581.029495999479
asI76
(lp77
I1461251126
aI1
aF0.9996355408126619
aF2555.7306971019425
asI77
(lp78
I1461251126
aI1
aF0.9996978763203724
aF2603.499795294425
asI78
(lp79
I1461251126
aI1
aF0.9997286601379692
aF2618.494143087475
asI79
(lp80
I1461251127
aI1
aF0.9996988023058602
aF2607.866220447846
asI80
(lp81
I1461251127
aI1
aF0.9997110647800226
aF2537.452674025175
asI81
(lp82
I1461251128
aI1
aF0.9997075405774347
aF2563.7236426016316
asI82
(lp83
I1461251128
aI1
aF0.9996898301003122
aF2569.646346831767
asI83
(lp84
I1461251129
aI1
aF0.9996594738271275
aF2605.2731749840023
asI84
(lp85
I1461251129
aI1
aF0.9996436711457385
aF2584.8332946950395
asI85
(lp86
I1461251130
aI1
aF0.999652829903302
aF2542.8371974471374
asI86
(lp87
I1461251130
aI1
aF0.9996900713185244
aF2570.0495768439578
asI87
(lp88
I1461251131
aI1
aF0.9997111565639453
aF2579.3211799469864
asI88
(lp89
I1461251131
aI1
aF0.9997177582015644
aF2609.737850107049
asI89
(lp90
I1461251132
aI1
aF0.9996790681119001
aF2565.122186418157
asI90
(lp91
I1461251132
aI1
aF0.9996536553567696
aF2621.8015773573425
asI91
(lp92
I1461251132
aI1
aF0.9997195732660176
aF2533.1727128326893
asI92
(lp93
I1461251133
aI1
aF0.9996711794011254
aF2612.1294308547367
asI93
(lp94
I1461251133
aI1
aF0.9997358689864122
aF2610.8878377164947
asI94
(lp95
I1461251134
aI1
aF0.9996683473052456
aF2562.887759851583
asI95
(lp96
I1461251134
aI1
aF0.9997296931968459
aF2580.171964575944
asI96
(lp97
I1461251135
aI1
aF0.9996878901772911
aF2561.6659553864592
asI97
(lp98
I1461251135
aI1
aF0.9996842034415858
aF2546.7523201967706
asI98
(lp99
I1461251135
aI1
aF0.9997218228739477
aF2628.0973722693307
asI99
(lp100
I1461251136
aI1
aF0.9996446339617708
aF2550.2618182547158
asI100
(lp101
I1461251136
aI1
aF0.999663237150073
aF2581.650579802692
asI101
(lp102
I1461251137
aI1
aF0.9997242559722097
aF2597.9100456715096
asI102
(lp103
I1461251137
aI1
aF0.9996849878049401
aF2589.0229885879235
asI103
(lp104
I1461251138
aI1
aF0.955315630218011
aF2592.3258777011506
asI104
(lp105
I1461251138
aI1
aF0.9996584927869132
aF2563.334012236446
asI105
(lp106
I1461251139
aI1
aF0.9996800662533073
aF2569.3494466962875
asI106
(lp107
I1461251139
aI1
aF0.9996507313572018
aF2610.978606397286
asI107
(lp108
I1461251140
aI1
aF0.9996777185348588
aF2599.955926947514
asI108
(lp109
I1461251140
aI1
aF0.9996514971873002
aF2575.731757503643
asI109
(lp110
I1461251141
aI1
aF0.9996574248744007
aF2559.6039960240887
asI110
(lp111
I1461251141
aI1
aF0.9996625801798855
aF2540.142089546862
asI111
(lp112
I1461251142
aI1
aF0.999669664269741
aF2606.657094646478
asI112
(lp113
I1461251142
aI1
aF0.9996436711457385
aF2584.9628248841327
asI113
(lp114
I1461251143
aI1
aF0.9997263104962185
aF2564.4030144582503
asI114
(lp115
I1461251143
aI1
aF0.9996525768339716
aF2579.580660876789
asI115
(lp116
I1461251144
aI1
aF0.9997008412444405
aF2575.5371719125105
asI116
(lp117
I1461251144
aI1
aF0.9996832782576622
aF2582.4346342603094
asI117
(lp118
I1461251145
aI1
aF0.9997068550255834
aF2560.0144159563933
asI118
(lp119
I1461251145
aI1
aF0.9996935093763832
aF2544.266736140242
asI119
(lp120
I1461251146
aI1
aF0.9997036236948976
aF2546.105648262106
asI120
(lp121
I1461251146
aI1
aF0.9997040664624726
aF2589.768759257582
asI121
(lp122
I1461251147
aI1
aF0.9996403401898224
aF2572.1111374441825
asI122
(lp123
I1461251147
aI1
aF0.9996380935416102
aF2564.7473108718987
asI123
(lp124
I1461251148
aI1
aF0.9996476785304782
aF2561.207343530812
asI124
(lp125
I1461251148
aI1
aF0.9996429566288533
aF2544.7640765512915
asI125
(lp126
I1461251149
aI1
aF0.9997261565043316
aF2606.029455030468
asI126
(lp127
I1461251149
aI1
aF0.9996454682000682
aF2553.8304254417308
asI127
(lp128
I1461251150
aI1
aF0.9996824605751659
aF2539.003792444739
asI128
(lp129
I1461251150
aI1
aF0.9997348544783239
aF2605.2049306001572
asI129
(lp130
I1461251151
aI1
aF0.9996412673944352
aF2538.061492689012
asI130
(lp131
I1461251151
aI1
aF0.9997257358653651
aF2604.785708405034
asI131
(lp132
I1461251152
aI1
aF0.9557948614449603
aF2607.5864150606503
asI132
(lp133
I1461251152
aI1
aF0.9996676277530154
aF2598.283280768228
asI133
(lp134
I1461251153
aI1
aF0.9996528459618614
aF2580.219162817957
asI134
(lp135
I1461251153
aI1
aF0.9996866684704229
aF2556.788949393289
asI135
(lp136
I1461251154
aI1
aF0.9534136565284466
aF2560.610683960331
asI136
(lp137
I1461251154
aI1
aF0.9996624533140659
aF2578.594901532095
asI137
(lp138
I1461251155
aI1
aF0.954995857299065
aF2595.938170614245
asI138
(lp139
I1461251155
aI1
aF0.999695777178269
aF2594.044150342379
asI139
(lp140
I1461251156
aI1
aF0.9997378806146814
aF2620.5358658386685
asI140
(lp141
I1461251156
aI1
aF0.9997196945987019
aF2618.6750015243597
asI141
(lp142
I1461251156
aI1
aF0.9996666024263186
aF2594.741743269391
asI142
(lp143
I1461251157
aI1
aF0.9996634978221924
aF2582.176449644845
asI143
(lp144
I1461251158
aI1
aF0.9997001833235424
aF2613.9430693443865
asI144
(lp145
I1461251158
aI1
aF0.9996555201305267
aF2590.5517674323055
asI145
(lp146
I1461251158
aI1
aF0.9997311534409551
aF2587.2313380724518
asI146
(lp147
I1461251159
aI1
aF0.9997301116209163
aF2582.5207929176395
asI147
(lp148
I1461251159
aI1
aF0.9996408985836829
aF2574.349518351257
asI148
(lp149
I1461251160
aI1
aF0.954466821881758
aF2582.026781574823
asI149
(lp150
I1461251160
aI1
aF0.9996917519957241
aF2577.3482917353977
asI150
(lp151
I1461251161
aI1
aF0.9543944694714033
aF2583.3326367952395
asI151
(lp152
I1461251161
aI1
aF0.9996799379661914
aF2608.7418781199667
asI152
(lp153
I1461251162
aI1
aF0.9996440761662763
aF2548.025929477095
asI153
(lp154
I1461251162
aI1
aF0.9996987399725581
aF2566.3749329454004
asI154
(lp155
I1461251163
aI1
aF0.9996895886004232
aF2568.0646895645186
asI155
(lp156
I1461251163
aI1
aF0.9997112453924312
aF2621.3731703813974
asI156
(lp157
I1461251164
aI1
aF0.9996714309094812
aF2574.164152028854
asI157
(lp158
I1461251164
aI1
aF0.9996412673944352
aF2538.8553342628875
asI158
(lp159
I1461251165
aI1
aF0.9997340386580957
aF2601.5933091243496
asI159
(lp160
I1461251165
aI1
aF0.9996696096858617
aF2528.207769114233
asI160
(lp161
I1461251166
aI1
aF0.9997116038427257
aF2581.34390861282
asI161
(lp162
I1461251166
aI1
aF0.9996959036683699
aF2554.715890422376
asI162
(lp163
I1461251167
aI1
aF0.9996919248248273
aF2618.6377720179444
asI163
(lp164
I1461251167
aI1
aF0.9997362731601533
aF2612.2026832528645
asI164
(lp165
I1461251168
aI1
aF0.9997196945987019
aF2618.3693013625452
asI165
(lp166
I1461251168
aI1
aF0.9996409846903713
aF2537.006884649323
asI166
(lp167
I1461251169
aI1
aF0.9997104836925227
aF2576.5732105937786
asI167
(lp168
I1461251169
aI1
aF0.9997186530510439
aF2571.6121948571235
asI168
(lp169
I1461251170
aI1
aF0.9997175418086847
aF2608.3827741869027
asI169
(lp170
I1461251170
aI1
aF0.9997122728156972
aF2584.8562136339024
asI170
(lp171
I1461251171
aI1
aF0.9996724340632782
aF2617.737373265467
asI171
(lp172
I1461251171
aI1
aF0.9996944962875807
aF2629.102682592871
asI172
(lp173
I1461251172
aI1
aF0.9997017680937579
aF2579.2583458246518
asI173
(lp174
I1461251172
aI1
aF0.9997214756407268
aF2584.632957455615
asI174
(lp175
I1461251173
aI1
aF0.9997019991331674
aF2580.231953697279
asI175
(lp176
I1461251173
aI1
aF0.9997015181199904
aF2537.496582121239
asI176
(lp177
I1461251174
aI1
aF0.9997052056976597
aF2594.0403748414246
asI177
(lp178
I1461251174
aI1
aF0.9997202360655454
aF2536.072799615067
asI178
(lp179
I1461251175
aI1
aF0.999721554635482
aF2542.945125699771
asI179
(lp180
I1461251175
aI1
aF0.9996539193528471
aF2546.3706810932927
asI180
(lp181
I1461251176
aI1
aF0.9996709199691929
aF2572.5589515988977
asI181
(lp182
I1461251176
aI1
aF0.9996600853186818
aF2569.8756664373796
asI182
(lp183
I1461251177
aI1
aF0.9997342429657382
aF2602.5523510793864
asI183
(lp184
I1461251177
aI1
aF0.9997207617773336
aF2623.664345994446
asI184
(lp185
I1461251178
aI1
aF0.9997059372009848
aF2556.43078956267
asI185
(lp186
I1461251178
aI1
aF0.9997177582015644
aF2609.903913398739
asI186
(lp187
I1461251178
aI1
aF0.9997226463368561
aF2547.5142604517023
asI187
(lp188
I1461251179
aI1
aF0.9996970903085609
aF2559.6338488535257
asI188
(lp189
I1461251179
aI1
aF0.9996992637032422
aF2609.2900376073667
asI189
(lp190
I1461251180
aI1
aF0.9996905987191379
aF2532.7258155727613
asI190
(lp191
I1461251180
aI1
aF0.9996968535367488
aF2558.911508544712
asI191
(lp192
I1461251181
aI1
aF0.9996552541063892
aF2589.8187961482327
asI192
(lp193
I1461251181
aI1
aF0.9997258831991657
aF2562.6319420053187
asI193
(lp194
I1461251182
aI1
aF0.9996453193007302
aF2590.8754607558367
asI194
(lp195
I1461251182
aI1
aF0.999710608884578
aF2535.261896694763
asI195
(lp196
I1461251182
aI1
aF0.9996742199290943
aF2585.8781448748487
asI196
(lp197
I1461251183
aI1
aF0.9996617821158995
aF2537.081263864704
asI197
(lp198
I1461251183
aI1
aF0.9997219920880827
aF2544.624527371707
asI198
(lp199
I1461251184
aI1
aF0.99968884375245
aF2605.4520328649087
asI199
(lp200
I1461251184
aI1
aF0.9996818916063774
aF2616.9907666330982
asI200
(lp201
I1461251185
aI1
aF0.9996796924965876
aF2607.3931244191626
asI201
(lp202
I1461251185
aI1
aF0.9996891278198123
aF2526.4798853850516
asI202
(lp203
I1461251185
aI1
aF0.9997258831991657
aF2562.4315056288033
asI203
(lp204
I1461251186
aI1
aF0.9996642780254635
aF2585.9484894375782
asI204
(lp205
I1461251186
aI1
aF0.9997063966511763
aF2558.973873525727
asI205
(lp206
I1461251187
aI1
aF0.9996770577670128
aF2557.008609854034
asI206
(lp207
I1461251188
aI1
aF0.9997290740709154
aF2620.331147344492
asI207
(lp208
I1461251188
aI1
aF0.9996412673944352
aF2538.784139815718
asI208
(lp209
I1461251188
aI1
aF0.952489694645122
aF2530.6096963764867
asI209
(lp210
I1461251189
aI1
aF0.9996607136194517
aF2533.418937742448
asI210
(lp211
I1461251189
aI1
aF0.9996929441247857
aF2582.9589305463014
asI211
(lp212
I1461251190
aI1
aF0.9997254549007941
aF2560.19653146762
asI212
(lp213
I1461251190
aI1
aF0.9997031503134927
aF2585.2277209802123
asI213
(lp214
I1461251191
aI1
aF0.9997313610810747
aF2588.051391837478
asI214
(lp215
I1461251191
aI1
aF0.9996784609030609
aF2602.548688914394
asI215
(lp216
I1461251191
aI1
aF0.9538771120659123
aF2542.2489670261857
asI216
(lp217
I1461251192
aI1
aF0.9996615546984803
aF2613.791068383027
asI217
(lp218
I1461251192
aI1
aF0.9996453193007302
aF2590.872726012938
asI218
(lp219
I1461251193
aI1
aF0.9996544541827443
aF2586.7373179970455
asI219
(lp220
I1461251193
aI1
aF0.9996665284509466
aF2555.4340138933476
asI220
(lp221
I1461251193
aI1
aF0.9997042948371305
aF2590.216472941873
asI221
(lp222
I1461251194
aI1
aF0.9996602563966831
aF2608.3999407317024
asI222
(lp223
I1461251194
aI1
aF0.9996563163583622
aF2593.1929316421447
asI223
(lp224
I1461251195
aI1
aF0.9996488513122262
aF2603.7180492218613
asI224
(lp225
I1461251195
aI1
aF0.999640134570542
aF2534.719277555123
asI225
(lp226
I1461251195
aI1
aF0.9996919909762111
aF2578.8591146179824
asI226
(lp227
I1461251196
aI1
aF0.9996636165575995
aF2621.7876280825585
asI227
(lp228
I1461251196
aI1
aF0.9997173358272247
aF2565.573133722719
asI228
(lp229
I1461251197
aI1
aF0.9996919248248273
aF2618.560420338239
asI229
(lp230
I1461251197
aI1
aF0.9997118270926746
aF2582.330346082963
asI230
(lp231
I1461251197
aI1
aF0.9996785672889199
aF2563.3439671566593
asI231
(lp232
I1461251198
aI1
aF0.9996825413323498
aF2579.44365231377
asI232
(lp233
I1461251198
aI1
aF0.9996433953368239
aF2583.827957870424
asI233
(lp234
I1461251199
aI1
aF0.9996440761662763
aF2548.5318999024894
asI234
(lp235
I1461251199
aI1
aF0.9996823772219644
aF2618.702494886529
asI235
(lp236
I1461251200
aI1
aF0.9997276211463472
aF2613.713715024991
asI236
(lp237
I1461251200
aI1
aF0.9997242559722097
aF2597.278843021835
asI237
(lp238
I1461251201
aI1
aF0.9996742625593972
aF2546.833927873755
asI238
(lp239
I1461251201
aI1
aF0.9996280126712638
aF2529.4882224194735
asI239
(lp240
I1461251202
aI1
aF0.9996966164872584
aF2557.5202347628656
asI240
(lp241
I1461251202
aI1
aF0.999689082395178
aF2606.252887204784
asI241
(lp242
I1461251202
aI1
aF0.9997081371110982
aF2607.8835345231637
asI242
(lp243
I1461251203
aI1
aF0.999678954391311
aF2604.7700168545707
asI243
(lp244
I1461251203
aI1
aF0.9996844512508798
aF2547.265482671326
asI244
(lp245
I1461251204
aI1
aF0.9568409002065312
aF2634.2085065286665
asI245
(lp246
I1461251204
aI1
aF0.9996400605044412
aF2571.0417198322248
asI246
(lp247
I1461251205
aI1
aF0.9996742199290943
aF2585.462590342111
asI247
(lp248
I1461251205
aI1
aF0.9996536553567696
aF2621.6810619111056
asI248
(lp249
I1461251205
aI1
aF0.9997082237275872
aF2566.7398840476817
asI249
(lp250
I1461251206
aI1
aF0.9997382801822808
aF2622.0639336047316
asI250
(lp251
I1461251206
aI1
aF0.9997179955925926
aF2568.028389256331
asI251
(lp252
I1461251206
aI1
aF0.9996968535367488
aF2558.135842150601
asI252
(lp253
I1461251207
aI1
aF0.9997006415529263
aF2615.035082096845
asI253
(lp254
I1461251207
aI1
aF0.9996487759536541
aF2565.870439889957
asI254
(lp255
I1461251208
aI1
aF0.9996854395773418
aF2551.5150217457704
asI255
(lp256
I1461251208
aI1
aF0.9996947100426207
aF2549.5019394103583
asI256
(lp257
I1461251209
aI1
aF0.9996418318019017
aF2540.3741141017963
asI257
(lp258
I1461251209
aI1
aF0.9996560512560392
aF2592.6429869557614
asI258
(lp259
I1461251210
aI1
aF0.9997047187691952
aF2633.1523394183314
asI259
(lp260
I1461251210
aI1
aF0.999683955340306
aF2545.0497395841667
asI260
(lp261
I1461251211
aI1
aF0.9996927855741534
aF2541.3712173019303
asI261
(lp262
I1461251211
aI1
aF0.9997173251668842
aF2607.373980131859
asI262
(lp263
I1461251211
aI1
aF0.9996711755881724
aF2573.905688100873
asI263
(lp264
I1461251212
aI1
aF0.9997038562716605
aF2547.5140004960267
asI264
(lp265
I1461251212
aI1
aF0.9996499274766156
aF2607.841134202463
asI265
(lp266
I1461251212
aI1
aF0.9997296931968459
aF2580.218376247707
asI266
(lp267
I1461251213
aI1
aF0.9997358689864122
aF2610.9635716669
asI267
(lp268
I1461251213
aI1
aF0.9996954270594013
aF2552.524715443782
asI268
(lp269
I1461251214
aI1
aF0.9997400669803468
aF2631.622403946065
asI269
(lp270
I1461251214
aI1
aF0.9996920592053128
aF2538.0864355110243
asI270
(lp271
I1461251214
aI1
aF0.9996937981813316
aF2626.935938785289
asI271
(lp272
I1461251215
aI1
aF0.9996751691717365
aF2628.2179549232387
asI272
(lp273
I1461251215
aI1
aF0.9996439466348549
aF2585.1606087424443
asI273
(lp274
I1461251215
aI1
aF0.9996531027473795
aF2543.6590017219423
asI274
(lp275
I1461251216
aI1
aF0.9996796924965876
aF2607.9359685459203
asI275
(lp276
I1461251216
aI1
aF0.9997260969726618
aF2563.516517932905
asI276
(lp277
I1461251216
aI1
aF0.9997242559722097
aF2597.8166775781865
asI277
(lp278
I1461251217
aI1
aF0.999677562120149
aF2559.3942301273637
asI278
(lp279
I1461251217
aI1
aF0.9997194804290436
aF2617.070103946142
asI279
(lp280
I1461251218
aI1
aF0.9996471278894288
aF2559.5219235791737
asI280
(lp281
I1461251218
aI1
aF0.9996309354698597
aF2539.1698236398224
asI281
(lp282
I1461251218
aI1
aF0.9996358257804755
aF2556.515012789634
asI282
(lp283
I1461251219
aI1
aF0.9996800662533073
aF2569.9908305991557
asI283
(lp284
I1461251219
aI1
aF0.9997052460012293
aF2553.8062219863787
asI284
(lp285
I1461251219
aI1
aF0.9996620484514823
aF2538.654919238412
asI285
(lp286
I1461251220
aI1
aF0.9996571571137294
aF2558.4105258295313
asI286
(lp287
I1461251220
aI1
aF0.9996686059265358
aF2563.2658056466025
asI287
(lp288
I1461251220
aI1
aF0.9997042948371305
aF2590.1867955997295
asI288
(lp289
I1461251221
aI1
aF0.9532725116057422
aF2559.091630137904
asI289
(lp290
I1461251221
aI1
aF0.9996992088305899
aF2568.823697289219
asI290
(lp291
I1461251221
aI1
aF0.9996461390941579
aF2593.1366467564076
asI291
(lp292
I1461251222
aI1
aF0.9997323956826758
aF2593.955340954053
asI292
(lp293
I1461251222
aI1
aF0.9997136037985169
aF2590.5477374912152
asI293
(lp294
I1461251223
aI1
aF0.9996737504429991
aF2544.7503481845197
asI294
(lp295
I1461251223
aI1
aF0.9997056595507464
aF2596.981709307205
asI295
(lp296
I1461251223
aI1
aF0.9996584927869132
aF2563.9306569090695
asI296
(lp297
I1461251224
aI1
aF0.9997017680937579
aF2579.1093054721277
asI297
(lp298
I1461251224
aI1
aF0.9996341109448146
aF2550.8558447543182
asI298
(lp299
I1461251224
aI1
aF0.9996838274164536
aF2624.2586723149725
asI299
(lp300
I1461251225
aI1
aF0.999655543938563
aF2552.5905054578325
asI300
(lp301
I1461251225
aI1
aF0.9996981082166053
aF2604.2549741354305
asI301
(lp302
I1461251225
aI1
aF0.999669917517817
aF2607.1926738872426
asI302
(lp303
I1461251226
aI1
aF0.9996937500755246
aF2545.8220416536788
asI303
(lp304
I1461251226
aI1
aF0.99964284275762
aF2581.7701551891223
asI304
(lp305
I1461251227
aI1
aF0.99967994563257
aF2529.5768846204155
asI305
(lp306
I1461251227
aI1
aF0.9996523073930564
aF2578.5074155912735
asI306
(lp307
I1461251227
aI1
aF0.9997029206116104
aF2584.967427165204
asI307
(lp308
I1461251228
aI1
aF0.9997015181199904
aF2537.961954836501
asI308
(lp309
I1461251228
aI1
aF0.999655813590596
aF2553.2063907528645
asI309
(lp310
I1461251228
aI1
aF0.9997010471681375
aF2535.3205128158443
asI310
(lp311
I1461251229
aI1
aF0.9997356665510776
aF2609.4178508973855
asI311
(lp312
I1461251229
aI1
aF0.9996927855741534
aF2541.4097055039747
asI312
(lp313
I1461251229
aI1
aF0.9996689027746525
aF2603.9241833178094
asI313
(lp314
I1461251230
aI1
aF0.9997131030391008
aF2546.987071444295
asI314
(lp315
I1461251230
aI1
aF0.999722863906694
aF2548.714704732498
asI315
(lp316
I1461251231
aI1
aF0.9996813073964106
aF2574.404298798516
asI316
(lp317
I1461251231
aI1
aF0.9996485020789726
aF2564.6997509465873
asI317
(lp318
I1461251231
aI1
aF0.9996796924965877
aF2528.8296252167493
asI318
(lp319
I1461251232
aI1
aF0.9996485814958923
aF2602.8082287623256
asI319
(lp320
I1461251232
aI1
aF0.9996857162343221
aF2592.1345106250374
asI320
(lp321
I1461251233
aI1
aF0.999710583525427
aF2618.03012105354
asI321
(lp322
I1461251233
aI1
aF0.9996917519957241
aF2577.904444627231
asI322
(lp323
I1461251233
aI1
aF0.9997386788370607
aF2624.498259257336
asI323
(lp324
I1461251234
aI1
aF0.9996384252488673
aF2528.598379924806
asI324
(lp325
I1461251234
aI1
aF0.9997107082439692
aF2577.3235178883624
asI325
(lp326
I1461251235
aI1
aF0.9996607766122321
aF2610.000664608524
asI326
(lp327
I1461251235
aI1
aF0.9997296931968459
aF2580.449003323505
asI327
(lp328
I1461251236
aI1
aF0.9996586885510467
aF2602.2332190611924
asI328
(lp329
I1461251236
aI1
aF0.9997225499536556
aF2589.5015062019083
asI329
(lp330
I1461251236
aI1
aF0.9996747232074351
aF2587.402196921379
asI330
(lp331
I1461251237
aI1
aF0.9996346838998099
aF2552.146213971995
asI331
(lp332
I1461251237
aI1
aF0.9996895588578713
aF2608.722445095191
asI332
(lp333
I1461251237
aI1
aF0.9997103805321829
aF2534.196880915566
asI333
(lp334
I1461251238
aI1
aF0.9997056595507464
aF2596.5796046424657
asI334
(lp335
I1461251238
aI1
aF0.9996910333833467
aF2574.2275434112526
asI335
(lp336
I1461251239
aI1
aF0.9997184058904877
aF2612.3092792425596
asI336
(lp337
I1461251239
aI1
aF0.9996341109448146
aF2550.9650973876705
asI337
(lp338
I1461251239
aI1
aF0.9996847444323914
aF2588.3585606965935
asI338
(lp339
I1461251240
aI1
aF0.9997224566317531
aF2631.656827230763
asI339
(lp340
I1461251240
aI1
aF0.9996754759414358
aF2590.1506013219914
asI340
(lp341
I1461251240
aI1
aF0.9996378112314829
aF2563.717248162342
asI341
(lp342
I1461251241
aI1
aF0.999700575100953
aF2533.7289320788113
asI342
(lp343
I1461251241
aI1
aF0.999657373709114
aF2597.878732763813
asI343
(lp344
I1461251242
aI1
aF0.9996832092799584
aF2542.87900501478
asI344
(lp345
I1461251242
aI1
aF0.9997024566917294
aF2541.157412116445
asI345
(lp346
I1461251243
aI1
aF0.9996869246817093
aF2597.0227092970745
asI346
(lp347
I1461251243
aI1
aF0.9996752831819641
aF2550.2087501008646
asI347
(lp348
I1461251243
aI1
aF0.9997392751137675
aF2627.734707289492
asI348
(lp349
I1461251244
aI1
aF0.9997181902420859
aF2611.3954074503417
asI349
(lp350
I1461251244
aI1
aF0.9997017680937579
aF2579.5540969334543
asI350
(lp351
I1461251245
aI1
aF0.9550353703521804
aF2593.412803054671
asI351
(lp352
I1461251245
aI1
aF0.9996329609844032
aF2546.127494443135
asI352
(lp353
I1461251245
aI1
aF0.9996468520847799
aF2558.910220705584
asI353
(lp354
I1461251246
aI1
aF0.9545587007000296
aF2588.4382390267274
asI354
(lp355
I1461251246
aI1
aF0.9996412673944352
aF2538.2216222322313
asI355
(lp356
I1461251247
aI1
aF0.9997066259726429
aF2559.7071327343438
asI356
(lp357
I1461251247
aI1
aF0.9997348544783239
aF2605.7671500924625
asI357
(lp358
I1461251247
aI1
aF0.999663237150073
aF2581.4004324921552
asI358
(lp359
I1461251248
aI1
aF0.9996498682582611
aF2569.8939102478325
asI359
(lp360
I1461251248
aI1
aF0.9996964793161811
aF2597.5729445253673
asI360
(lp361
I1461251249
aI1
aF0.9996704231412198
aF2609.2952376364556
asI361
(lp362
I1461251249
aI1
aF0.9996724492272361
aF2578.5547681170283
asI362
(lp363
I1461251250
aI1
aF0.999694837198676
aF2590.6814965572266
asI363
(lp364
I1461251250
aI1
aF0.9996764755297117
aF2594.907725650555
asI364
(lp365
I1461251250
aI1
aF0.9996985712089403
aF2606.2128039915115
asI365
(lp366
I1461251251
aI1
aF0.9996528459618614
aF2580.9117952676024
asI366
(lp367
I1461251251
aI1
aF0.9996512264894194
aF2574.8905467946897
asI367
(lp368
I1461251252
aI1
aF0.9996628455736941
aF2541.484622314805
asI368
(lp369
I1461251252
aI1
aF0.9997303102032238
aF2626.8447877465223
asI369
(lp370
I1461251253
aI1
aF0.9997107082439692
aF2577.159441544063
asI370
(lp371
I1461251253
aI1
aF0.9996607136194517
aF2533.452121612063
asI371
(lp372
I1461251253
aI1
aF0.9996689027746525
aF2603.2773969566333
asI372
(lp373
I1461251254
aI1
aF0.9996366786818233
aF2559.696999212494
asI373
(lp374
I1461251254
aI1
aF0.9996883768604413
aF2563.4611271834583
asI374
(lp375
I1461251255
aI1
aF0.9528817224227938
aF2557.7658150451753
asI375
(lp376
I1461251255
aI1
aF0.999686200451357
aF2594.475167042896
asI376
(lp377
I1461251255
aI1
aF0.9997113803332833
aF2580.6530602093553
asI377
(lp378
I1461251256
aI1
aF0.9997054766716402
aF2554.811022105496
asI378
(lp379
I1461251256
aI1
aF0.9997184341538865
aF2570.4183020440687
asI379
(lp380
I1461251257
aI1
aF0.9996433953368239
aF2583.492023607687
asI380
(lp381
I1461251257
aI1
aF0.9996897966786766
aF2609.3352281622356
asI381
(lp382
I1461251257
aI1
aF0.999658950611235
aF2603.718919249339
asI382
(lp383
I1461251258
aI1
aF0.999678954391311
aF2604.6417361452914
asI383
(lp384
I1461251258
aI1
aF0.9996493227437868
aF2567.341649283888
asI384
(lp385
I1461251259
aI1
aF0.9996983398459915
aF2605.6144737296854
asI385
(lp386
I1461251259
aI1
aF0.9996571098292655
aF2596.690610609512
asI386
(lp387
I1461251260
aI1
aF0.9997230882265314
aF2634.2491565459786
asI387
(lp388
I1461251260
aI1
aF0.9997197944606266
aF2534.600637764641
asI388
(lp389
I1461251260
aI1
aF0.9996973268031283
aF2560.709650755889
asI389
(lp390
I1461251261
aI1
aF0.999677562120149
aF2559.6193494046165
asI390
(lp391
I1461251261
aI1
aF0.9997095828675454
aF2572.8482526495354
asI391
(lp392
I1461251262
aI1
aF0.9997131611654344
aF2588.0253762414213
asI392
(lp393
I1461251262
aI1
aF0.9996845487926546
aF2627.441143306365
asI393
(lp394
I1461251263
aI1
aF0.953401459881983
aF2547.8677230030007
asI394
(lp395
I1461251263
aI1
aF0.9996500836702664
aF2532.943494396095
asI395
(lp396
I1461251264
aI1
aF0.9996557858469185
aF2591.9664359088347
asI396
(lp397
I1461251264
aI1
aF0.9996435170566805
aF2546.4401574363
asI397
(lp398
I1461251265
aI1
aF0.9553724422316116
aF2597.8411650167254
asI398
(lp399
I1461251265
aI1
aF0.9547940622257958
aF2592.3927577422583
asI399
(lp400
I1461251266
aI1
aF0.9997211869432286
aF2625.697735552021
asI400
(lp401
I1461251266
aI1
aF0.9997155650922873
aF2557.826937518781
asI401
(lp402
I1461251267
aI1
aF0.9996483113685107
aF2601.2978986983217
asI402
(lp403
I1461251267
aI1
aF0.9996678291537575
aF2560.0883312223013
asI403
(lp404
I1461251268
aI1
aF0.9997151449738658
aF2597.8776123709395
asI404
(lp405
I1461251268
aI1
aF0.9996778138538391
aF2560.62337347056
asI405
(lp406
I1461251268
aI1
aF0.9996924681043137
aF2580.4445260625653
asI406
(lp407
I1461251269
aI1
aF0.9996934190410527
aF2584.7713644722535
asI407
(lp408
I1461251269
aI1
aF0.9996930271261446
aF2542.4356751688756
asI408
(lp409
I1461251270
aI1
aF0.9996638729647284
aF2622.8181956207845
asI409
(lp410
I1461251270
aI1
aF0.9996587589849365
aF2564.9984896395035
asI410
(lp411
I1461251271
aI1
aF0.999710804400349
aF2619.7644319152896
asI411
(lp412
I1461251272
aI1
aF0.9996996276064792
aF2529.224105731817
asI412
(lp413
I1461251272
aI1
aF0.9538432772480973
aF2541.1243935124803
asI413
(lp414
I1461251273
aI1
aF0.9996506355170895
aF2534.6372526846535
asI414
(lp415
I1461251273
aI1
aF0.9996795677654835
aF2567.5164846277767
asI415
(lp416
I1461251274
aI1
aF0.9996949493292441
aF2550.2771426634863
asI416
(lp417
I1461251274
aI1
aF0.999648040929603
aF2600.6341528962366
asI417
(lp418
I1461251274
aI1
aF0.9996465759567084
aF2557.84988238629
asI418
(lp419
I1461251275
aI1
aF0.9997049428348969
aF2634.0762875689397
asI419
(lp420
I1461251275
aI1
aF0.999672703067103
aF2579.6981381313526
asI420
(lp421
I1461251276
aI1
aF0.999692706252789
aF2581.178137901239
asI421
(lp422
I1461251277
aI1
aF0.9996576372845187
aF2598.493232709763
asI422
(lp423
I1461251277
aI1
aF0.9996690865551137
aF2526.797921462421
asI423
(lp424
I1461251278
aI1
aF0.9996681386438481
aF2600.207745082196
asI424
(lp425
I1461251278
aI1
aF0.9996563519457738
aF2555.6799888618116
asI425
(lp426
I1461251279
aI1
aF0.9997282210249656
aF2573.331578139172
asI426
(lp427
I1461251279
aI1
aF0.9996921599329943
aF2619.0950897478615
asI427
(lp428
I1461251280
aI1
aF0.9997162310624242
aF2560.800737999205
asI428
(lp429
I1461251280
aI1
aF0.9996754759414358
aF2590.046796283219
asI429
(lp430
I1461251281
aI1
aF0.9996422888932712
aF2579.7896479705523
asI430
(lp431
I1461251281
aI1
aF0.9996523073930564
aF2578.6380688729696
asI431
(lp432
I1461251282
aI1
aF0.954852140959351
aF2597.9950715251325
asI432
(lp433
I1461251282
aI1
aF0.9549073442273025
aF2618.6214080693317
asI433
(lp434
I1461251283
aI1
aF0.9996801831537726
aF2609.9377048928727
asI434
(lp435
I1461251283
aI1
aF0.9997017680937579
aF2579.5461912803585
asI435
(lp436
I1461251284
aI1
aF0.9997079962770322
aF2565.9649042637466
asI436
(lp437
I1461251284
aI1
aF0.9996660879831623
aF2592.915492759872
asI437
(lp438
I1461251285
aI1
aF0.999642394878648
aF2542.4584310871433
asI438
(lp439
I1461251285
aI1
aF0.999648227883883
aF2563.7921310961246
asI439
(lp440
I1461251286
aI1
aF0.9996624533140659
aF2578.5251916051056
asI440
(lp441
I1461251286
aI1
aF0.9996361104142593
aF2557.798195162788
asI441
(lp442
I1461251287
aI1
aF0.9996876464081228
aF2600.259048191132
asI442
(lp443
I1461251287
aI1
aF0.9996372789274659
aF2524.7919075887476
asI443
(lp444
I1461251288
aI1
aF0.9997003761989176
aF2573.5074933461874
asI444
(lp445
I1461251289
aI1
aF0.9996912731997245
aF2575.2038760253927
asI445
(lp446
I1461251289
aI1
aF0.9544997018251945
aF2583.3322416972806
asI446
(lp447
I1461251290
aI1
aF0.999645745626897
aF2554.592688283985
asI447
(lp448
I1461251290
aI1
aF0.999710583525427
aF2618.2008988527523
asI448
(lp449
I1461251291
aI1
aF0.9996849878049401
aF2589.6118180334743
asI449
(lp450
I1461251291
aI1
aF0.9996837681168104
aF2584.4626835796516
asI450
(lp451
I1461251292
aI1
aF0.9996512657405314
aF2612.0122670966084
asI451
(lp452
I1461251292
aI1
aF0.9553298861230456
aF2628.0088502539293
asI452
(lp453
I1461251293
aI1
aF0.999647953367885
aF2562.381183670135
asI453
(lp454
I1461251293
aI1
aF0.9996549723250118
aF2626.727405964164
asI454
(lp455
I1461251294
aI1
aF0.9996541909140936
aF2547.2108144422236
asI455
(lp456
I1461251294
aI1
aF0.9997017531787652
aF2538.4345147713466
asI456
(lp457
I1461251295
aI1
aF0.9997364748992705
aF2613.329709787504
asI457
(lp458
I1461251295
aI1
aF0.9997166737441362
aF2604.7249964537914
asI458
(lp459
I1461251296
aI1
aF0.9997102588795636
aF2575.550379405875
asI459
(lp460
I1461251296
aI1
aF0.9996639040244609
aF2545.0202037377458
asI460
(lp461
I1461251297
aI1
aF0.9996511860597068
aF2536.432006672636
asI461
(lp462
I1461251297
aI1
aF0.9996714309094812
aF2613.709286319485
asI462
(lp463
I1461251298
aI1
aF0.9996798171548886
aF2568.2122469418973
asI463
(lp464
I1461251298
aI1
aF0.9996765522297879
aF2555.4685033682035
asI464
(lp465
I1461251299
aI1
aF0.9996664209939604
aF2632.3813913136546
asI465
(lp466
I1461251299
aI1
aF0.9996796924965876
aF2607.7837235250045
asI466
(lp467
I1461251300
aI1
aF0.9996660879831623
aF2592.4223038815253
asI467
(lp468
I1461251300
aI1
aF0.9996966164872584
aF2557.9844767626055
asI468
(lp469
I1461251301
aI1
aF0.9996343975906392
aF2551.0242463085888
asI469
(lp470
I1461251302
aI1
aF0.9996726841340181
aF2618.7465701533365
asI470
(lp471
I1461251302
aI1
aF0.9997256691753402
aF2561.2380935980764
asI471
(lp472
I1461251303
aI1
aF0.9533440264249897
aF2539.805298254796
asI472
(lp473
I1461251303
aI1
aF0.9996719330614249
aF2615.283062888717
asI473
(lp474
I1461251304
aI1
aF0.9997259463058872
aF2605.428873837809
asI474
(lp475
I1461251304
aI1
aF0.9996461390941579
aF2593.467224963999
asI475
(lp476
I1461251305
aI1
aF0.999718871693071
aF2572.1921100072213
asI476
(lp477
I1461251305
aI1
aF0.9996372456195158
aF2561.2645636228553
asI477
(lp478
I1461251306
aI1
aF0.9996539193528471
aF2546.3718207917263
asI478
(lp479
I1461251306
aI1
aF0.9997259463058872
aF2605.8263029507216
asI479
(lp480
I1461251307
aI1
aF0.9996777185348588
aF2599.166171653371
asI480
(lp481
I1461251307
aI1
aF0.9996752253206379
aF2589.8719822915737
asI481
(lp482
I1461251308
aI1
aF0.9996696373930058
aF2567.5600790884782
asI482
(lp483
I1461251308
aI1
aF0.9997245952875599
aF2556.37713351789
asI483
(lp484
I1461251309
aI1
aF0.9997303204687611
aF2583.4562254625052
asI484
(lp485
I1461251309
aI1
aF0.9997213991621825
aF2626.438615602805
asI485
(lp486
I1461251310
aI1
aF0.9997348544783239
aF2605.3418650351523
asI486
(lp487
I1461251310
aI1
aF0.9997201222029668
aF2620.455296439206
asI487
(lp488
I1461251311
aI1
aF0.9997078507184404
aF2523.4001782222185
asI488
(lp489
I1461251312
aI1
aF0.9996607136194517
aF2533.2273442464066
asI489
(lp490
I1461251312
aI1
aF0.9996560829261679
aF2554.773282471506
asI490
(lp491
I1461251313
aI1
aF0.999672206827826
aF2538.828754276503
asI491
(lp492
I1461251314
aI1
aF0.9997063966511763
aF2558.276579200756
asI492
(lp493
I1461251314
aI1
aF0.9997336293354697
aF2599.016906097386
asI493
(lp494
I1461251315
aI1
aF0.9997326018857835
aF2594.5486458392697
asI494
(lp495
I1461251315
aI1
aF0.9997195732660176
aF2533.1210278092767
asI495
(lp496
I1461251316
aI1
aF0.9996950726015126
aF2591.641994894162
asI496
(lp497
I1461251316
aI1
aF0.999664796654738
aF2587.318516664731
asI497
(lp498
I1461251317
aI1
aF0.9996954270594013
aF2552.8819120125117
asI498
(lp499
I1461251317
aI1
aF0.9996683936477236
aF2601.4625606794143
asI499
(lp500
I1461251318
aI1
aF0.9996950726015126
aF2591.92278207693
asI500
(lp501
I1461251318
aI1
aF0.9997144859969386
aF2594.2881787978113
asI501
(lp502
I1461251319
aI1
aF0.9996970903085609
aF2559.7607082108734
asI502
(lp503
I1461251319
aI1
aF0.999653383280503
aF2582.052787238761
asI503
(lp504
I1461251320
aI1
aF0.9997008412444405
aF2575.6804242810176
asI504
(lp505
I1461251320
aI1
aF0.9996380935416102
aF2564.2904090619413
asI505
(lp506
I1461251321
aI1
aF0.9996706755174374
aF2610.8009147148114
asI506
(lp507
I1461251321
aI1
aF0.9997254549007941
aF2560.6806710957753
asI507
(lp508
I1461251322
aI1
aF0.9996963791596553
aF2556.1024826554785
asI508
(lp509
I1461251322
aI1
aF0.9996539193528472
aF2584.505631478736
asI509
(lp510
I1461251323
aI1
aF0.9996767247052802
aF2595.9975910764188
asI510
(lp511
I1461251323
aI1
aF0.9997372795456418
aF2617.807226760342
asI511
(lp512
I1461251324
aI1
aF0.9996421135063533
aF2541.85268979214
asI512
(lp513
I1461251324
aI1
aF0.9996442218046676
aF2586.8046175318304
asI513
(lp514
I1461251325
aI1
aF0.9997286601379692
aF2618.590709388751
asI514
(lp515
I1461251326
aI1
aF0.9996736815592598
aF2622.336771965929
asI515
(lp516
I1461251326
aI1
aF0.9996883768604413
aF2563.1374368909746
asI516
(lp517
I1461251327
aI1
aF0.9997146734795566
aF2553.603639939407
asI517
(lp518
I1461251327
aI1
aF0.9996918165099105
aF2537.2296730297094
asI518
(lp519
I1461251328
aI1
aF0.9996727225810256
aF2540.499639101705
asI519
(lp520
I1461251328
aI1
aF0.9996924681043137
aF2580.521558812572
asI520
(lp521
I1461251329
aI1
aF0.954258863433537
aF2614.3787225870765
asI521
(lp522
I1461251329
aI1
aF0.9997179955925926
aF2568.018753931785
asI522
(lp523
I1461251330
aI1
aF0.9996375285909567
aF2562.922601939121
asI523
(lp524
I1461251330
aI1
aF0.9997193082133197
aF2574.7999682979716
asI524
(lp525
I1461251331
aI1
aF0.9997022299042425
aF2581.611312080291
asI525
(lp526
I1461251331
aI1
aF0.9997205488296522
aF2622.573952519917
asI526
(lp527
I1461251332
aI1
aF0.9996822951190546
aF2578.6070723695593
asI527
(lp528
I1461251332
aI1
aF0.999630062257084
aF2536.2908193661133
asI528
(lp529
I1461251333
aI1
aF0.9996693799782518
aF2566.6622470466536
asI529
(lp530
I1461251333
aI1
aF0.9996464117272149
aF2594.581056482595
asI530
(lp531
I1461251334
aI1
aF0.9545591902534626
aF2572.2117700118542
asI531
(lp532
I1461251334
aI1
aF0.9996946015231807
aF2589.831465000694
asI532
(lp533
I1461251335
aI1
aF0.9996709199691929
aF2572.8922114654415
asI533
(lp534
I1461251335
aI1
aF0.999713777668465
aF2549.000717159215
asI534
(lp535
I1461251336
aI1
aF0.9996780652928914
aF2561.037404342511
asI535
(lp536
I1461251336
aI1
aF0.9996937500755246
aF2545.0008376901387
asI536
(lp537
I1461251337
aI1
aF0.9996926293427658
aF2621.5707799323573
asI537
(lp538
I1461251337
aI1
aF0.9997123434702881
aF2626.1799705203157
asI538
(lp539
I1461251338
aI1
aF0.9996462995047087
aF2556.2817645366595
asI539
(lp540
I1461251338
aI1
aF0.9997004125696292
aF2614.762879814225
asI540
(lp541
I1461251339
aI1
aF0.9996469560491159
aF2596.052465623143
asI541
(lp542
I1461251339
aI1
aF0.9996403401898224
aF2572.071235934476
asI542
(lp543
I1461251340
aI1
aF0.9997311295980056
aF2630.2274627420848
asI543
(lp544
I1461251340
aI1
aF0.99968884375245
aF2605.342136068357
asI544
(lp545
I1461251341
aI1
aF0.9997109325343084
aF2578.6876690799836
asI545
(lp546
I1461251341
aI1
aF0.9997168946966931
aF2563.229912786046
asI546
(lp547
I1461251342
aI1
aF0.999718871693071
aF2572.607925089076
asI547
(lp548
I1461251342
aI1
aF0.9997024604073986
aF2582.931645040866
asI548
(lp549
I1461251343
aI1
aF0.9996989745384777
aF2567.523082828993
asI549
(lp550
I1461251343
aI1
aF0.9996612484994937
aF2535.618191396061
asI550
(lp551
I1461251344
aI1
aF0.9996829600061378
aF2541.8158421548287
asI551
(lp552
I1461251344
aI1
aF0.9996617821158995
aF2537.188908418466
asI552
(lp553
I1461251345
aI1
aF0.999662976174992
aF2580.335060246114
asI553
(lp554
I1461251345
aI1
aF0.9996983398459915
aF2605.9472921312554
asI554
(lp555
I1461251346
aI1
aF0.9996827872595879
aF2580.520441571891
asI555
(lp556
I1461251346
aI1
aF0.9997008412444405
aF2575.689143970303
asI556
(lp557
I1461251347
aI1
aF0.9996832092799584
aF2542.742769953533
asI557
(lp558
I1461251347
aI1
aF0.9996754759414358
aF2590.2417893052916
asI558
(lp559
I1461251348
aI1
aF0.9997102588795636
aF2575.747631088918
asI559
(lp560
I1461251348
aI1
aF0.999701073361357
aF2576.1964067489607
asI560
(lp561
I1461251349
aI1
aF0.9996983398459915
aF2605.549654347633
asI561
(lp562
I1461251349
aI1
aF0.9996742625593972
aF2546.7663769669307
asI562
(lp563
I1461251350
aI1
aF0.9997225499536556
aF2589.1911236261367
asI563
(lp564
I1461251350
aI1
aF0.9996383755218533
aF2565.1571479986887
asI564
(lp565
I1461251351
aI1
aF0.9996796924965877
aF2528.0609967573546
asI565
(lp566
I1461251351
aI1
aF0.9996734939318658
aF2543.6323941232986
asI566
(lp567
I1461251352
aI1
aF0.9537008744627025
aF2559.7802840042714
asI567
(lp568
I1461251352
aI1
aF0.999710804400349
aF2619.6980361333262
asI568
(lp569
I1461251353
aI1
aF0.9996694107301535
aF2605.614487899933
asI569
(lp570
I1461251353
aI1
aF0.9996829600061378
aF2541.1665216239635
asI570
(lp571
I1461251354
aI1
aF0.9997029243185943
aF2543.2041395943525
asI571
(lp572
I1461251354
aI1
aF0.9997221209755129
aF2587.9374794927426
asI572
(lp573
I1461251355
aI1
aF0.9996961415535045
aF2555.6183916035225
asI573
(lp574
I1461251355
aI1
aF0.9996939904912748
aF2546.2883042717003
asI574
(lp575
I1461251356
aI1
aF0.9996714309094812
aF2574.0936120172846
asI575
(lp576
I1461251356
aI1
aF0.999675791695668
aF2552.9402066907933
asI576
(lp577
I1461251357
aI1
aF0.9997124260221025
aF2543.746096374234
asI577
(lp578
I1461251357
aI1
aF0.9996688642454864
aF2564.6722175866744
asI578
(lp579
I1461251358
aI1
aF0.9997044944482015
aF2632.508615993909
asI579
(lp580
I1461251358
aI1
aF0.9997033797491094
aF2586.697412581765
asI580
(lp581
I1461251359
aI1
aF0.9996663453534388
aF2593.248862121167
asI581
(lp582
I1461251359
aI1
aF0.9996389963732033
aF2530.668670224288
asI582
(lp583
I1461251360
aI1
aF0.9996660879831623
aF2592.1608544764895
asI583
(lp584
I1461251360
aI1
aF0.9532979912362355
aF2585.5609003223217
asI584
(lp585
I1461251361
aI1
aF0.9996449123680166
aF2551.496825364389
asI585
(lp586
I1461251361
aI1
aF0.9996512264894194
aF2574.5273584082897
asI586
(lp587
I1461251362
aI1
aF0.999711465510361
aF2622.3939069683547
asI587
(lp588
I1461251362
aI1
aF0.9537461948809852
aF2554.499803807499
asI588
(lp589
I1461251363
aI1
aF0.9997094644148349
aF2530.9405715085886
asI589
(lp590
I1461251363
aI1
aF0.9996883656421253
aF2603.0056375220884
asI590
(lp591
I1461251364
aI1
aF0.9996709199691929
aF2572.6895210785297
asI591
(lp592
I1461251364
aI1
aF0.9997234049356364
aF2593.08196749381
asI592
(lp593
I1461251365
aI1
aF0.9996547211329747
aF2587.655694553512
asI593
(lp594
I1461251365
aI1
aF0.9997205488296522
aF2622.309168525506
asI594
(lp595
I1461251366
aI1
aF0.9996933314471572
aF2624.939936117298
asI595
(lp596
I1461251366
aI1
aF0.9996751691717365
aF2628.345604809263
asI596
(lp597
I1461251367
aI1
aF0.999669917517817
aF2607.088238819997
asI597
(lp598
I1461251367
aI1
aF0.9996547211329747
aF2587.386083230551
asI598
(lp599
I1461251368
aI1
aF0.9996442218046676
aF2586.3212179402326
asI599
(lp600
I1461251368
aI1
aF0.9996468520847799
aF2558.350665492864
asI600
(lp601
I1461251369
aI1
aF0.9996447711883536
aF2588.524248821559
asI601
(lp602
I1461251369
aI1
aF0.999713777668465
aF2549.4289894140093
asI602
(lp603
I1461251369
aI1
aF0.9996341109448146
aF2550.243604722491
asI603
(lp604
I1461251370
aI1
aF0.999719266013869
aF2616.6764074601233
asI604
(lp605
I1461251370
aI1
aF0.9996864421404043
aF2595.350571828938
asI605
(lp606
I1461251371
aI1
aF0.9996994428493206
aF2569.3638760924805
asI606
(lp607
I1461251371
aI1
aF0.999669917517817
aF2607.8193278767867
asI607
(lp608
I1461251372
aI1
aF0.9996810597461543
aF2573.542261845432
asI608
(lp609
I1461251372
aI1
aF0.999682134553254
aF2617.126136728315
asI609
(lp610
I1461251373
aI1
aF0.9996397804927508
aF2570.773112286115
asI610
(lp611
I1461251373
aI1
aF0.9996549877740305
aF2588.2679056840134
asI611
(lp612
I1461251374
aI1
aF0.9996326726473698
aF2545.971791177726
asI612
(lp613
I1461251374
aI1
aF0.9996667892018798
aF2556.772320218326
asI613
(lp614
I1461251375
aI1
aF0.999721335521941
aF2541.188962393644
asI614
(lp615
I1461251375
aI1
aF0.9996734326307356
aF2621.048251137254
asI615
(lp616
I1461251375
aI1
aF0.9557156725229458
aF2611.4787296971917
asI616
(lp617
I1461251376
aI1
aF0.9996919248248273
aF2618.379960001912
asI617
(lp618
I1461251377
aI1
aF0.9997251030876103
aF2601.475122460426
asI618
(lp619
I1461251377
aI1
aF0.999665150614175
aF2627.2293173524376
asI619
(lp620
I1461251378
aI1
aF0.9996566206499076
aF2556.6281643993716
asI620
(lp621
I1461251378
aI1
aF0.9997036236948976
aF2546.4938731915026
asI621
(lp622
I1461251379
aI1
aF0.9997095828675454
aF2572.22221255349
asI622
(lp623
I1461251379
aI1
aF0.9996283065103801
aF2530.514047003817
asI623
(lp624
I1461251380
aI1
aF0.9996633598570162
aF2620.594912475426
asI624
(lp625
I1461251380
aI1
aF0.9539265138190822
aF2553.46977140689
asI625
(lp626
I1461251381
aI1
aF0.9997390765817988
aF2626.8794608140306
asI626
(lp627
I1461251381
aI1
aF0.9996372456195158
aF2561.830771279405
asI627
(lp628
I1461251382
aI1
aF0.9997307374379472
aF2585.378389829304
asI628
(lp629
I1461251382
aI1
aF0.9996668592022594
aF2595.3773657034617
asI629
(lp630
I1461251383
aI1
aF0.9996788178468126
aF2564.41448369727
asI630
(lp631
I1461251383
aI1
aF0.9996421135063533
aF2541.8922194995685
asI631
(lp632
I1461251384
aI1
aF0.9997290740709154
aF2620.797008176465
asI632
(lp633
I1461251384
aI1
aF0.9996507313572018
aF2610.965152546967
asI633
(lp634
I1461251385
aI1
aF0.9996975630208834
aF2561.6051903617335
asI634
(lp635
I1461251385
aI1
aF0.9996967128221311
aF2598.8983323419234
asI635
(lp636
I1461251386
aI1
aF0.9997133826101271
aF2589.437146544471
asI636
(lp637
I1461251386
aI1
aF0.999676045504766
aF2553.092035237569
asI637
(lp638
I1461251386
aI1
aF0.9996813073964106
aF2574.253355451976
asI638
(lp639
I1461251387
aI1
aF0.9996785672889199
aF2563.3284174525324
asI639
(lp640
I1461251387
aI1
aF0.9996826196129335
aF2619.2129872000805
asI640
(lp641
I1461251388
aI1
aF0.9997195732660176
aF2533.739203365287
asI641
(lp642
I1461251388
aI1
aF0.9997022371115194
aF2622.631107246998
asI642
(lp643
I1461251389
aI1
aF0.9997208280555937
aF2581.231951161608
asI643
(lp644
I1461251389
aI1
aF0.9996460227282743
aF2555.3940318627283
asI644
(lp645
I1461251390
aI1
aF0.9996759763136643
aF2592.377307615825
asI645
(lp646
I1461251390
aI1
aF0.999647227738928
aF2597.425572340231
asI646
(lp647
I1461251391
aI1
aF0.9996395001542432
aF2569.6607980401313
asI647
(lp648
I1461251391
aI1
aF0.9997208965183455
aF2539.529310045109
asI648
(lp649
I1461251392
aI1
aF0.9996726841340181
aF2618.0007088696584
asI649
(lp650
I1461251392
aI1
aF0.999721906113312
aF2586.9099753155897
asI650
(lp651
I1461251393
aI1
aF0.9996915735275285
aF2536.959322028677
asI651
(lp652
I1461251393
aI1
aF0.9997061123566932
aF2598.3289717684966
asI652
(lp653
I1461251394
aI1
aF0.9996768051466427
aF2556.0098871387017
asI653
(lp654
I1461251394
aI1
aF0.999721554635482
aF2542.467522914376
asI654
(lp655
I1461251395
aI1
aF0.9997274126320961
aF2612.4457702607615
asI655
(lp656
I1461251395
aI1
aF0.9996641290788502
aF2623.7071456540434
asI656
(lp657
I1461251396
aI1
aF0.954493031588029
aF2602.90195517597
asI657
(lp658
I1461251396
aI1
aF0.9996397804927508
aF2570.8280388744897
asI658
(lp659
I1461251397
aI1
aF0.9997248105689125
aF2557.1244477825967
asI659
(lp660
I1461251397
aI1
aF0.9996751691717365
aF2628.200119095709
asI660
(lp661
I1461251397
aI1
aF0.9997136037985169
aF2590.251195952558
asI661
(lp662
I1461251398
aI1
aF0.9996968535367488
aF2558.6499125840783
asI662
(lp663
I1461251398
aI1
aF0.9996599958401213
aF2607.956424140095
asI663
(lp664
I1461251399
aI1
aF0.9997126519604228
aF2544.7008390704286
asI664
(lp665
I1461251399
aI1
aF0.9997321892409886
aF2592.5913226873963
asI665
(lp666
I1461251400
aI1
aF0.9997344470380831
aF2603.3680516906024
asI666
(lp667
I1461251400
aI1
aF0.9996343975906392
aF2551.929607905913
asI667
(lp668
I1461251400
aI1
aF0.9997261565043316
aF2606.2086808366876
asI668
(lp669
I1461251401
aI1
aF0.9996752831819641
aF2550.267229554651
asI669
(lp670
I1461251401
aI1
aF0.9996755375882233
aF2551.3493489495013
asI670
(lp671
I1461251402
aI1
aF0.9541755924563771
aF2570.281933689839
asI671
(lp672
I1461251402
aI1
aF0.9996594738271275
aF2605.6356120285345
asI672
(lp673
I1461251402
aI1
aF0.999735260981699
aF2607.300139014842
asI673
(lp674
I1461251403
aI1
aF0.9996619292356467
aF2576.4507128809346
asI674
(lp675
I1461251403
aI1
aF0.9997269495711432
aF2567.3397255899617
asI675
(lp676
I1461251404
aI1
aF0.9996726841340181
aF2618.437363444682
asI676
(lp677
I1461251404
aI1
aF0.999657373709114
aF2597.637683708308
asI677
(lp678
I1461251405
aI1
aF0.9997104836925227
aF2576.11825895746
asI678
(lp679
I1461251406
aI1
aF0.9996683936477236
aF2601.5321868180763
asI679
(lp680
I1461251406
aI1
aF0.9997317756404036
aF2590.485003370559
asI680
(lp681
I1461251406
aI1
aF0.9997309455600367
aF2586.5153321063117
asI681
(lp682
I1461251407
aI1
aF0.9997108369670495
aF2536.1277455303934
asI682
(lp683
I1461251407
aI1
aF0.999722863906694
aF2548.255775562837
asI683
(lp684
I1461251408
aI1
aF0.9996471278894288
aF2559.357716593775
asI684
(lp685
I1461251408
aI1
aF0.9996999538142636
aF2612.52988833189
asI685
(lp686
I1461251409
aI1
aF0.9996938928565263
aF2586.4105871468782
asI686
(lp687
I1461251409
aI1
aF0.9996498072564902
aF2531.7827079209383
asI687
(lp688
I1461251410
aI1
aF0.9996670496471504
aF2557.6837677755684
asI688
(lp689
I1461251410
aI1
aF0.9996608774111851
aF2572.201980542741
asI689
(lp690
I1461251410
aI1
aF0.9996616667386958
aF2575.213199418373
asI690
(lp691
I1461251411
aI1
aF0.9996277184836366
aF2528.941900347825
asI691
(lp692
I1461251411
aI1
aF0.9997047838468104
aF2551.1437760560802
asI692
(lp693
I1461251412
aI1
aF0.9996512264894194
aF2574.1076989114517
asI693
(lp694
I1461251412
aI1
aF0.9996517353022244
aF2538.7650517253205
asI694
(lp695
I1461251413
aI1
aF0.9996557858469185
aF2591.5992767207354
asI695
(lp696
I1461251414
aI1
aF0.9535545246901621
aF2561.95333451248
asI696
(lp697
I1461251414
aI1
aF0.9997246800185492
aF2599.207904338502
asI697
(lp698
I1461251414
aI1
aF0.9997286601379692
aF2618.340910808314
asI698
(lp699
I1461251415
aI1
aF0.9996830329012113
aF2581.760229700303
asI699
(lp700
I1461251415
aI1
aF0.9997190900803645
aF2573.487267901801
asI700
(lp701
I1461251416
aI1
aF0.9996871655348252
aF2598.5084548367013
asI701
(lp702
I1461251416
aI1
aF0.9996454682000682
aF2553.0866683591157
asI702
(lp703
I1461251417
aI1
aF0.9996509987022592
aF2611.0820686997176
asI703
(lp704
I1461251417
aI1
aF0.9996703920594858
aF2531.921548843151
asI704
(lp705
I1461251418
aI1
aF0.9997136037985169
aF2590.287467414164
asI705
(lp706
I1461251418
aI1
aF0.9996680883811437
aF2561.4506623098277
asI706
(lp707
I1461251419
aI1
aF0.9997358689864122
aF2610.8037823353516
asI707
(lp708
I1461251419
aI1
aF0.9997013269300901
aF2618.830843010437
asI708
(lp709
I1461251420
aI1
aF0.9996671156817186
aF2596.9465736757847
asI709
(lp710
I1461251420
aI1
aF0.9997110250225552
aF2620.3298597217654
asI710
(lp711
I1461251421
aI1
aF0.9997103805321829
aF2534.858503617579
asI711
(lp712
I1461251421
aI1
aF0.9996500836702664
aF2532.3308887944877
asI712
(lp713
I1461251422
aI1
aF0.9996928636451898
aF2622.7477179853013
asI713
(lp714
I1461251422
aI1
aF0.9996878864291575
aF2601.675595328532
asI714
(lp715
I1461251423
aI1
aF0.9997040885748045
aF2548.084755543925
asI715
(lp716
I1461251423
aI1
aF0.999649595660233
aF2568.175509753637
asI716
(lp717
I1461251424
aI1
aF0.9996827872595879
aF2580.204488439951
asI717
(lp718
I1461251424
aI1
aF0.9997277981954311
aF2571.0186223345227
asI718
(lp719
I1461251425
aI1
aF0.9997015548662351
aF2619.03863760097
asI719
(lp720
I1461251425
aI1
aF0.9997033797491094
aF2586.988759499247
asI720
(lp721
I1461251426
aI1
aF0.9996628455736941
aF2541.9782715351466
asI721
(lp722
I1461251426
aI1
aF0.9553799664810515
aF2594.3581911657384
asI722
(lp723
I1461251427
aI1
aF0.9997296931968458
aF2623.2226488148444
asI723
(lp724
I1461251427
aI1
aF0.9997026906430498
aF2583.925975190825
asI724
(lp725
I1461251428
aI1
aF0.9997286601379692
aF2618.070568679832
asI725
(lp726
I1461251428
aI1
aF0.9539419932647467
aF2563.2488251762843
asI726
(lp727
I1461251429
aI1
aF0.9997133281802931
aF2547.107582239696
asI727
(lp728
I1461251429
aI1
aF0.9997017825415903
aF2620.1836063099763
asI728
(lp729
I1461251430
aI1
aF0.9996831035633404
aF2621.137106731374
asI729
(lp730
I1461251430
aI1
aF0.9996380935416102
aF2564.5455931542965
asI730
(lp731
I1461251431
aI1
aF0.9996847444323914
aF2588.89066790785
asI731
(lp732
I1461251431
aI1
aF0.9996549723250118
aF2626.994583298205
asI732
(lp733
I1461251432
aI1
aF0.9996827872595879
aF2580.9767791459017
asI733
(lp734
I1461251432
aI1
aF0.9996709120992681
aF2533.2299910640722
asI734
(lp735
I1461251433
aI1
aF0.9997153425812653
aF2556.3211268735467
asI735
(lp736
I1461251433
aI1
aF0.9996999538142636
aF2612.0135719614336
asI736
(lp737
I1461251434
aI1
aF0.9547614935298889
aF2591.6596525010245
asI737
(lp738
I1461251434
aI1
aF0.9997124952895716
aF2585.949522925657
asI738
(lp739
I1461251435
aI1
aF0.9555556335979744
aF2593.348199960572
asI739
(lp740
I1461251435
aI1
aF0.9996944704743795
aF2548.627196561545
asI740
(lp741
I1461251436
aI1
aF0.9996406195494011
aF2573.9523586572177
asI741
(lp742
I1461251436
aI1
aF0.9997019991331674
aF2580.2294281277573
asI742
(lp743
I1461251437
aI1
aF0.9996987399725581
aF2566.557193818502
asI743
(lp744
I1461251437
aI1
aF0.9997029206116104
aF2584.73037456529
asI744
(lp745
I1461251438
aI1
aF0.9997392751137675
aF2627.2993932286045
asI745
(lp746
I1461251439
aI1
aF0.9997181902420859
aF2611.005303144222
asI746
(lp747
I1461251439
aI1
aF0.9996349698728534
aF2553.7270626064856
asI747
(lp748
I1461251440
aI1
aF0.9996719330614249
aF2615.863056888338
asI748
(lp749
I1461251440
aI1
aF0.9997090302924078
aF2611.1114136831893
asI749
(lp750
I1461251441
aI1
aF0.9996788178468126
aF2564.484028965351
asI750
(lp751
I1461251441
aI1
aF0.9997086778322803
aF2568.2904125415953
asI751
(lp752
I1461251442
aI1
aF0.9996600853186818
aF2569.221331117238
asI752
(lp753
I1461251442
aI1
aF0.999669664269741
aF2606.6997891112987
asI753
(lp754
I1461251443
aI1
aF0.9996386571727262
aF2566.236985989817
asI754
(lp755
I1461251443
aI1
aF0.9996764755297117
aF2594.375062142688
asI755
(lp756
I1461251444
aI1
aF0.9997047838468104
aF2551.9478442724358
asI756
(lp757
I1461251444
aI1
aF0.9996724492272361
aF2578.045055802504
asI757
(lp758
I1461251445
aI1
aF0.9524500935172355
aF2557.9335169408587
asI758
(lp759
I1461251445
aI1
aF0.9997350578469402
aF2606.0595081139763
asI759
(lp760
I1461251446
aI1
aF0.9996631106545649
aF2542.8738921406766
asI760
(lp761
I1461251446
aI1
aF0.9996716859335815
aF2575.9755839304125
asI761
(lp762
I1461251447
aI1
aF0.9996900342263466
aF2610.0698488052876
asI762
(lp763
I1461251447
aI1
aF0.999724163966399
aF2554.1859623240307
asI763
(lp764
I1461251448
aI1
aF0.9997257358653651
aF2604.0025722225546
asI764
(lp765
I1461251448
aI1
aF0.9996938928565263
aF2586.2424440665927
asI765
(lp766
I1461251449
aI1
aF0.9997090302924078
aF2611.429102102775
asI766
(lp767
I1461251449
aI1
aF0.9997121998172369
aF2542.6384840299725
asI767
(lp768
I1461251450
aI1
aF0.9997269948847424
aF2610.146972534858
asI768
(lp769
I1461251450
aI1
aF0.9997206766274753
aF2538.620659347478
asI769
(lp770
I1461251451
aI1
aF0.9996503597569608
aF2533.100081894634
asI770
(lp771
I1461251451
aI1
aF0.9996828617265844
aF2620.145258106859
asI771
(lp772
I1461251452
aI1
aF0.9996436711457385
aF2584.649867274915
asI772
(lp773
I1461251452
aI1
aF0.9996477701786902
aF2599.0621092692018
asI773
(lp774
I1461251453
aI1
aF0.9997258831991657
aF2562.81005809411
asI774
(lp775
I1461251454
aI1
aF0.9997013269300901
aF2618.9275075768383
asI775
(lp776
I1461251454
aI1
aF0.9997216111389662
aF2627.1107062459923
asI776
(lp777
I1461251455
aI1
aF0.9997177759276594
aF2567.4980320454197
asI777
(lp778
I1461251455
aI1
aF0.9996765522297879
aF2555.3519460251555
asI778
(lp779
I1461251456
aI1
aF0.9996568890390619
aF2557.420872584611
asI779
(lp780
I1461251456
aI1
aF0.9996616667386958
aF2575.65435663244
asI780
(lp781
I1461251457
aI1
aF0.9997214756407268
aF2584.1287997448817
asI781
(lp782
I1461251457
aI1
aF0.9996346838998099
aF2552.6497730062256
asI782
(lp783
I1461251458
aI1
aF0.9996810597461543
aF2573.128815221091
asI783
(lp784
I1461251458
aI1
aF0.999677562120149
aF2559.626029388455
asI784
(lp785
I1461251459
aI1
aF0.9996859320005209
aF2553.5678484036616
asI785
(lp786
I1461251459
aI1
aF0.9996944704743795
aF2548.343908192648
asI786
(lp787
I1461251460
aI1
aF0.9997068550255834
aF2560.86629027233
asI787
(lp788
I1461251461
aI1
aF0.9996536514722212
aF2583.855596218753
asI788
(lp789
I1461251461
aI1
aF0.9996453193007302
aF2590.751700157183
asI789
(lp790
I1461251462
aI1
aF0.9997095828675454
aF2572.2653260482475
asI790
(lp791
I1461251462
aI1
aF0.9996375660182508
aF2525.084696120757
asI791
(lp792
I1461251463
aI1
aF0.9996375285909567
aF2562.4349624200113
asI792
(lp793
I1461251463
aI1
aF0.954873055064938
aF2588.0449298671447
asI793
(lp794
I1461251464
aI1
aF0.9997236180637118
aF2594.058446398645
asI794
(lp795
I1461251464
aI1
aF0.9996623144726462
aF2539.394595573249
asI795
(lp796
I1461251465
aI1
aF0.9996691568986066
aF2604.856174829998
asI796
(lp797
I1461251465
aI1
aF0.9997267856509053
aF2609.9124480133614
asI797
(lp798
I1461251466
aI1
aF0.999698197911226
aF2523.2500663048995
asI798
(lp799
I1461251466
aI1
aF0.999635255510296
aF2554.8720176892093
asI799
(lp800
I1461251467
aI1
aF0.9996363947145349
aF2558.6943467163946
asI800
(lp801
I1461251467
aI1
aF0.9997259463058872
aF2605.3102647988417
asI801
(lp802
I1461251468
aI1
aF0.9996905085039517
aF2612.1497958325344
asI802
(lp803
I1461251468
aI1
aF0.9997193082133197
aF2574.609403749637
asI803
(lp804
I1461251469
aI1
aF0.9996830329012113
aF2581.8550671656703
asI804
(lp805
I1461251470
aI1
aF0.9997323956826758
aF2593.5781656507606
asI805
(lp806
I1461251470
aI1
aF0.9997340386580957
aF2601.2920467870135
asI806
(lp807
I1461251470
aI1
aF0.9997052460012293
aF2553.6489971405535
asI807
(lp808
I1461251471
aI1
aF0.99968884375245
aF2605.167591473524
asI808
(lp809
I1461251471
aI1
aF0.9997292737990907
aF2578.406487660177
asI809
(lp810
I1461251472
aI1
aF0.9996767247052802
aF2595.1036235148786
asI810
(lp811
I1461251473
aI1
aF0.9996625801798855
aF2540.124122590787
asI811
(lp812
I1461251473
aI1
aF0.9996644313820242
aF2547.422517025989
asI812
(lp813
I1461251473
aI1
aF0.9996579594557146
aF2561.6778706964105
asI813
(lp814
I1461251474
aI1
aF0.9996912731997245
aF2575.6940470242407
asI814
(lp815
I1461251474
aI1
aF0.9996658303150302
aF2591.8929291173263
asI815
(lp816
I1461251475
aI1
aF0.9997019879600223
aF2539.5932389894733
asI816
(lp817
I1461251475
aI1
aF0.9538195206773594
aF2553.244606152657
asI817
(lp818
I1461251476
aI1
aF0.9996726841340181
aF2618.776946480837
asI818
(lp819
I1461251476
aI1
aF0.9996822104170872
aF2538.219055964073
asI819
(lp820
I1461251477
aI1
aF0.9996488513122262
aF2603.1315488122054
asI820
(lp821
I1461251478
aI1
aF0.9997157873425501
aF2558.5356990178116
asI821
(lp822
I1461251478
aI1
aF0.9996437967759988
aF2547.6908244952792
asI822
(lp823
I1461251479
aI1
aF0.9996620719365783
aF2615.7483016922924
asI823
(lp824
I1461251479
aI1
aF0.9996861777786855
aF2554.5415692662064
asI824
(lp825
I1461251480
aI1
aF0.9996507313572018
aF2610.6603035126464
asI825
(lp826
I1461251480
aI1
aF0.9996737504429991
aF2544.1303858661995
asI826
(lp827
I1461251481
aI1
aF0.9996765522297879
aF2555.993769173976
asI827
(lp828
I1461251481
aI1
aF0.9997175418086847
aF2608.326116551063
asI828
(lp829
I1461251482
aI1
aF0.9996536514722212
aF2583.9615676374815
asI829
(lp830
I1461251482
aI1
aF0.9997173358272247
aF2565.238054893678
asI830
(lp831
I1461251483
aI1
aF0.9996778138538391
aF2560.079761723464
asI831
(lp832
I1461251483
aI1
aF0.9997282452557886
aF2616.009083172612
asI832
(lp833
I1461251484
aI1
aF0.9996421135063533
aF2541.546416068377
asI833
(lp834
I1461251484
aI1
aF0.9996531147772106
aF2581.087245757808
asI834
(lp835
I1461251485
aI1
aF0.9996638729647284
aF2622.6919453334995
asI835
(lp836
I1461251485
aI1
aF0.9996799379661914
aF2608.619187563192
asI836
(lp837
I1461251486
aI1
aF0.9996762260659879
aF2593.019781530995
asI837
(lp838
I1461251486
aI1
aF0.9996666024263186
aF2594.6584394979873
asI838
(lp839
I1461251487
aI1
aF0.9996963791596553
aF2556.097045799601
asI839
(lp840
I1461251487
aI1
aF0.9996967128221311
aF2598.3776677751157
asI840
(lp841
I1461251488
aI1
aF0.9996807032429501
aF2532.6327286218293
asI841
(lp842
I1461251488
aI1
aF0.9997319825603542
aF2591.9327660175622
asI842
(lp843
I1461251489
aI1
aF0.999735260981699
aF2607.0225862728985
asI843
(lp844
I1461251489
aI1
aF0.999648227883883
aF2563.491266711295
asI844
(lp845
I1461251490
aI1
aF0.9997301116209163
aF2582.9274985062657
asI845
(lp846
I1461251490
aI1
aF0.9996474991152922
aF2598.8466389622045
asI846
(lp847
I1461251491
aI1
aF0.9997200153936652
aF2535.8530683855497
asI847
(lp848
I1461251491
aI1
aF0.9996514971873002
aF2575.790655973382
asI848
(lp849
I1461251492
aI1
aF0.9997205488296522
aF2622.887041996626
asI849
(lp850
I1461251492
aI1
aF0.9996716898547102
aF2536.3698295033537
asI850
(lp851
I1461251493
aI1
aF0.9520207182030925
aF2526.067177601595
asI851
(lp852
I1461251493
aI1
aF0.9996608774111851
aF2572.956075871334
asI852
(lp853
I1461251494
aI1
aF0.9997083607915372
aF2608.57301808559
asI853
(lp854
I1461251494
aI1
aF0.9996886197753122
aF2564.104693374771
asI854
(lp855
I1461251495
aI1
aF0.999657373709114
aF2597.4793169835757
asI855
(lp856
I1461251495
aI1
aF0.9997129394640422
aF2587.33595888337
asI856
(lp857
I1461251496
aI1
aF0.9997323956826758
aF2593.922625097446
asI857
(lp858
I1461251496
aI1
aF0.9997093570044665
aF2571.606234079809
asI858
(lp859
I1461251497
aI1
aF0.9996387109802856
aF2529.109019973228
asI859
(lp860
I1461251497
aI1
aF0.9997217734907272
aF2543.25493663596
asI860
(lp861
I1461251498
aI1
aF0.9996871655348252
aF2598.358228699959
asI861
(lp862
I1461251498
aI1
aF0.9997077685604531
aF2564.8631144929677
asI862
(lp863
I1461251499
aI1
aF0.9556839545415309
aF2610.0986325601407
asI863
(lp864
I1461251499
aI1
aF0.9544799780350297
aF2608.162453086319
asI864
(lp865
I1461251500
aI1
aF0.9997080820682975
aF2524.414484419118
asI865
(lp866
I1461251501
aI1
aF0.999660613688209
aF2571.053210856102
asI866
(lp867
I1461251501
aI1
aF0.9997135530566094
aF2548.564220872242
asI867
(lp868
I1461251502
aI1
aF0.9996680883811437
aF2561.368453205534
asI868
(lp869
I1461251502
aI1
aF0.9997309455600367
aF2586.845332416706
asI869
(lp870
I1461251503
aI1
aF0.9997346508754915
aF2604.9864460488316
asI870
(lp871
I1461251503
aI1
aF0.9996361104142593
aF2557.4961327942437
asI871
(lp872
I1461251504
aI1
aF0.9996805635789946
aF2571.143514031457
asI872
(lp873
I1461251504
aI1
aF0.9996571571137294
aF2558.0970843882824
asI873
(lp874
I1461251505
aI1
aF0.9996950726015126
aF2591.1017392508656
asI874
(lp875
I1461251505
aI1
aF0.9996905085039517
aF2612.1273489957093
asI875
(lp876
I1461251506
aI1
aF0.9996854737054716
aF2591.295962210279
asI876
(lp877
I1461251506
aI1
aF0.9534813679293382
aF2562.6442394353508
asI877
(lp878
I1461251507
aI1
aF0.9996783164377654
aF2562.4741778832977
asI878
(lp879
I1461251507
aI1
aF0.9996966164872584
aF2557.339044505963
asI879
(lp880
I1461251508
aI1
aF0.9996778138538391
aF2560.72317099839
asI880
(lp881
I1461251508
aI1
aF0.999700575100953
aF2533.643544533261
asI881
(lp882
I1461251509
aI1
aF0.9996680883811437
aF2561.314484364004
asI882
(lp883
I1461251509
aI1
aF0.999718836445468
aF2614.49642216778
asI883
(lp884
I1461251510
aI1
aF0.9997133826101271
aF2589.2050615789776
asI884
(lp885
I1461251510
aI1
aF0.9996742199290943
aF2585.4446859531745
asI885
(lp886
I1461251511
aI1
aF0.9997001432694702
aF2572.80745947556
asI886
(lp887
I1461251511
aI1
aF0.9996793180846388
aF2566.7988011847774
asI887
(lp888
I1461251512
aI1
aF0.9996673097872361
aF2558.820948421213
asI888
(lp889
I1461251512
aI1
aF0.9996883768604413
aF2563.8408639359404
asI889
(lp890
I1461251513
aI1
aF0.9997063383679953
aF2599.1198507650406
asI890
(lp891
I1461251514
aI1
aF0.9997219920880827
aF2544.9101662473986
asI891
(lp892
I1461251514
aI1
aF0.9997079131732617
aF2606.2364497723174
asI892
(lp893
I1461251515
aI1
aF0.9996297704975172
aF2535.364966483845
asI893
(lp894
I1461251515
aI1
aF0.9996511860597068
aF2536.269138471689
asI894
(lp895
I1461251516
aI1
aF0.9996686059265358
aF2563.198493903212
asI895
(lp896
I1461251516
aI1
aF0.9996905529116681
aF2572.3405842358625
asI896
(lp897
I1461251517
aI1
aF0.9996625801798855
aF2540.7898483349854
asI897
(lp898
I1461251517
aI1
aF0.9996533910585584
aF2620.0584396256454
asI898
(lp899
I1461251518
aI1
aF0.9996507313572018
aF2610.2787243604835
asI899
(lp900
I1461251518
aI1
aF0.9996709199691929
aF2572.133181188401
asI900
(lp901
I1461251519
aI1
aF0.9996491208179896
aF2604.7753973268264
asI901
(lp902
I1461251519
aI1
aF0.9997392751137675
aF2627.9448264539824
asI902
(lp903
I1461251520
aI1
aF0.9996778138538391
aF2560.790495480396
asI903
(lp904
I1461251520
aI1
aF0.9996485020789726
aF2564.724330048819
asI904
(lp905
I1461251521
aI1
aF0.9997396714986285
aF2629.420462127833
asI905
(lp906
I1461251521
aI1
aF0.9997330135777306
aF2596.4409034223354
asI906
(lp907
I1461251522
aI1
aF0.9996514608432222
aF2537.8334485623345
asI907
(lp908
I1461251523
aI1
aF0.9517510382534121
aF2537.95766747382
asI908
(lp909
I1461251523
aI1
aF0.99964449665567
aF2587.6274852182833
asI909
(lp910
I1461251524
aI1
aF0.9996653140833592
aF2589.8963486775756
asI910
(lp911
I1461251524
aI1
aF0.9996595557145252
aF2567.2287335355068
asI911
(lp912
I1461251525
aI1
aF0.9997250255979732
aF2558.6699137530522
asI912
(lp913
I1461251525
aI1
aF0.99964284275762
aF2581.562028969667
asI913
(lp914
I1461251526
aI1
aF0.9996554970102166
aF2628.2142823488684
asI914
(lp915
I1461251526
aI1
aF0.9997162310624242
aF2560.773688294081
asI915
(lp916
I1461251527
aI1
aF0.9997149255685722
aF2596.694907414814
asI916
(lp917
I1461251527
aI1
aF0.9996967128221311
aF2598.9177305914636
asI917
(lp918
I1461251528
aI1
aF0.9997042948371305
aF2590.1275966824905
asI918
(lp919
I1461251528
aI1
aF0.9996898645772921
aF2529.656221398196
asI919
(lp920
I1461251529
aI1
aF0.9996834582599525
aF2543.3959615750937
asI920
(lp921
I1461251529
aI1
aF0.9997356665510776
aF2609.6760720666643
asI921
(lp922
I1461251530
aI1
aF0.9996600853186818
aF2569.6873494793545
asI922
(lp923
I1461251530
aI1
aF0.9547890757252728
aF2579.502286310919
asI923
(lp924
I1461251531
aI1
aF0.9996493227437868
aF2567.3578994491545
asI924
(lp925
I1461251532
aI1
aF0.9997113803332833
aF2580.966781137453
asI925
(lp926
I1461251532
aI1
aF0.9997380805127576
aF2621.793939538198
asI926
(lp927
I1461251533
aI1
aF0.9996709276039248
aF2611.621981758799
asI927
(lp928
I1461251533
aI1
aF0.9996800662533073
aF2569.621782247632
asI928
(lp929
I1461251534
aI1
aF0.9997142261004507
aF2551.642298555773
asI929
(lp930
I1461251534
aI1
aF0.9997288534246281
aF2576.816436514375
asI930
(lp931
I1461251535
aI1
aF0.9997135530566094
aF2548.92651242431
asI931
(lp932
I1461251535
aI1
aF0.9997179743459047
aF2610.5781120937318
asI932
(lp933
I1461251536
aI1
aF0.999703837823189
aF2588.3722136443976
asI933
(lp934
I1461251536
aI1
aF0.9997102588795636
aF2575.356122310448
asI934
(lp935
I1461251537
aI1
aF0.9996659137108715
aF2630.2200074493885
asI935
(lp936
I1461251537
aI1
aF0.9996787077892829
aF2603.9913648022193
asI936
(lp937
I1461251538
aI1
aF0.9997054327552972
aF2595.8057579110027
asI937
(lp938
I1461251538
aI1
aF0.9996912731997245
aF2575.0676858743827
asI938
(lp939
I1461251539
aI1
aF0.9996544621558893
aF2548.1498285649286
asI939
(lp940
I1461251539
aI1
aF0.9997231915609739
aF2592.6852510069148
asI940
(lp941
I1461251540
aI1
aF0.9996557858469185
aF2591.608844092232
asI941
(lp942
I1461251540
aI1
aF0.9996726841340181
aF2618.49856715693
asI942
(lp943
I1461251541
aI1
aF0.9541506265442902
aF2582.339532303886
asI943
(lp944
I1461251541
aI1
aF0.9996392194884098
aF2568.9021365310764
asI944
(lp945
I1461251542
aI1
aF0.9996425659863376
aF2580.578253999687
asI945
(lp946
I1461251542
aI1
aF0.9996886197753122
aF2564.730977195548
asI946
(lp947
I1461251543
aI1
aF0.9996734628190551
aF2582.2712489577243
asI947
(lp948
I1461251543
aI1
aF0.9996474991152922
aF2598.485333009143
asI948
(lp949
I1461251544
aI1
aF0.99964449665567
aF2587.350312524941
asI949
(lp950
I1461251545
aI1
aF0.9996550036831298
aF2550.2551072645147
asI950
(lp951
I1461251545
aI1
aF0.9996831035633404
aF2621.5320504708216
asI951
(lp952
I1461251546
aI1
aF0.9996756627829358
aF2630.40253863002
asI952
(lp953
I1461251546
aI1
aF0.9997284528157144
aF2617.8101036335866
asI953
(lp954
I1461251547
aI1
aF0.9996790681119001
aF2565.83130673549
asI954
(lp955
I1461251547
aI1
aF0.999669664269741
aF2606.245519143704
asI955
(lp956
I1461251548
aI1
aF0.9997123434702881
aF2626.383235275862
asI956
(lp957
I1461251548
aI1
aF0.9997221209755129
aF2587.127967465436
asI957
(lp958
I1461251549
aI1
aF0.9997116038427257
aF2581.9603045379044
asI958
(lp959
I1461251549
aI1
aF0.999718215001202
aF2569.612329486903
asI959
(lp960
I1461251550
aI1
aF0.9997115195991707
aF2539.5328902181936
asI960
(lp961
I1461251550
aI1
aF0.9997076889776324
aF2605.507764362439
asI961
(lp962
I1461251551
aI1
aF0.9997031503134927
aF2585.075659748458
asI962
(lp963
I1461251551
aI1
aF0.9997166737441362
aF2604.3365649591724
asI963
(lp964
I1461251552
aI1
aF0.9996876464081228
aF2560.1450190615433
asI964
(lp965
I1461251552
aI1
aF0.9996646945955593
aF2548.6420116601657
asI965
(lp966
I1461251553
aI1
aF0.9997203950768092
aF2579.4057635521312
asI966
(lp967
I1461251553
aI1
aF0.9996453193007302
aF2590.7451453359536
asI967
(lp968
I1461251554
aI1
aF0.9996727225810256
aF2540.7327587380278
asI968
(lp969
I1461251554
aI1
aF0.9996962455404979
aF2596.3934519951
asI969
(lp970
I1461251555
aI1
aF0.9997282210249656
aF2573.444305135039
asI970
(lp971
I1461251555
aI1
aF0.999664796654738
aF2587.0578644119814
asI971
(lp972
I1461251556
aI1
aF0.9997003761989176
aF2573.3762631786085
asI972
(lp973
I1461251556
aI1
aF0.9996706640520799
aF2571.1429458006023
asI973
(lp974
I1461251557
aI1
aF0.9996679359312064
aF2638.124098680506
asI974
(lp975
I1461251557
aI1
aF0.999683955340306
aF2545.5250070241163
asI975
(lp976
I1461251558
aI1
aF0.9996978763203724
aF2603.2760237635666
asI976
(lp977
I1461251559
aI1
aF0.9997153641259977
aF2598.9866661308915
asI977
(lp978
I1461251559
aI1
aF0.9539665801848958
aF2586.195205606564
asI978
(lp979
I1461251560
aI1
aF0.9996999538142636
aF2612.1596226421534
asI979
(lp980
I1461251560
aI1
aF0.9997193082133197
aF2574.032011039104
asI980
(lp981
I1461251561
aI1
aF0.999649049508426
aF2566.6110115677584
asI981
(lp982
I1461251561
aI1
aF0.9996432370078047
aF2545.086387172865
asI982
(lp983
I1461251562
aI1
aF0.9996642780254635
aF2585.6768695361825
asI983
(lp984
I1461251562
aI1
aF0.999692706252789
aF2581.6007469203323
asI984
(lp985
I1461251563
aI1
aF0.9996818018325154
aF2576.0480940980488
asI985
(lp986
I1461251563
aI1
aF0.9996780652928914
aF2561.1003744456684
asI986
(lp987
I1461251564
aI1
aF0.9996432370078047
aF2545.5642486502184
asI987
(lp988
I1461251564
aI1
aF0.9997116038427257
aF2581.381669124239
asI988
(lp989
I1461251565
aI1
aF0.9521224167105136
aF2532.725558820399
asI989
(lp990
I1461251566
aI1
aF0.999647227738928
aF2597.7740717537818
asI990
(lp991
I1461251566
aI1
aF0.9996846987686459
aF2548.366585435244
asI991
(lp992
I1461251567
aI1
aF0.999713777668465
aF2549.264521598816
asI992
(lp993
I1461251567
aI1
aF0.9996852308958221
aF2590.4811574560154
asI993
(lp994
I1461251568
aI1
aF0.9997076889776324
aF2605.2467386300123
asI994
(lp995
I1461251568
aI1
aF0.9997040885748045
aF2548.0275469010667
asI995
(lp996
I1461251569
aI1
aF0.9996460227282743
aF2555.8479305162327
asI996
(lp997
I1461251569
aI1
aF0.9996895588578713
aF2608.0110409341287
asI997
(lp998
I1461251570
aI1
aF0.9997222104279534
aF2545.0914963630785
asI998
(lp999
I1461251570
aI1
aF0.999706564118718
aF2600.5131497225375
asI999
(lp1000
I1461251571
aI1
aF0.9996512657405314
aF2612.966301251945
asI1000
(lp1001
I1461251571
aI1
aF0.9996515324724878
aF2613.185840419261
asI1001
(lp1002
I1461251572
aI1
aF0.9996864232685025
aF2555.471362308017
asI1002
(lp1003
I1461251572
aI1
aF0.9996406195494011
aF2573.6050928230397
asI1003
(lp1004
I1461251573
aI1
aF0.9996942638509599
aF2628.065852902131
asI1004
(lp1005
I1461251573
aI1
aF0.999687406110154
aF2599.52189394529
asI1005
(lp1006
I1461251574
aI1
aF0.9996689027746525
aF2603.2480640662834
asI1006
(lp1007
I1461251574
aI1
aF0.9996678291537575
aF2560.1887686608097
asI1007
(lp1008
I1461251575
aI1
aF0.9996541869228616
aF2585.3565949266776
asI1008
(lp1009
I1461251575
aI1
aF0.9997093570044665
aF2571.198331007443
asI1009
(lp1010
I1461251576
aI1
aF0.999710583525427
aF2618.4654076906736
asI1010
(lp1011
I1461251576
aI1
aF0.9996783164377654
aF2562.8360851483158
asI1011
(lp1012
I1461251577
aI1
aF0.9996498072564902
aF2531.9341741758253
asI1012
(lp1013
I1461251577
aI1
aF0.9997067896092623
aF2601.8226244968246
asI1013
(lp1014
I1461251578
aI1
aF0.9996579005559477
aF2599.3754020628694
asI1014
(lp1015
I1461251578
aI1
aF0.9997222104279534
aF2545.6316878915095
asI1015
(lp1016
I1461251579
aI1
aF0.9997319825603542
aF2591.7366249541374
asI1016
(lp1017
I1461251579
aI1
aF0.9997110250225552
aF2620.3562965014135
asI1017
(lp1018
I1461251580
aI1
aF0.9997088073817989
aF2610.954157899061
asI1018
(lp1019
I1461251580
aI1
aF0.9997290740709154
aF2620.3735397976125
asI1019
(lp1020
I1461251581
aI1
aF0.9996834582599525
aF2543.6876617595553
asI1020
(lp1021
I1461251582
aI1
aF0.9996824605751659
aF2539.258902790025
asI1021
(lp1022
I1461251582
aI1
aF0.9997077685604531
aF2564.372537231233
asI1022
(lp1023
I1461251582
aI1
aF0.9996663453534388
aF2593.4190412410535
asI1023
(lp1024
I1461251583
aI1
aF0.9997129394640422
aF2587.0464618811675
asI1024
(lp1025
I1461251584
aI1
aF0.999704320604759
aF2549.1616004447133
asI1025
(lp1026
I1461251584
aI1
aF0.9997309455600367
aF2586.4357721830165
asI1026
(lp1027
I1461251584
aI1
aF0.9997234049356364
aF2593.007150961799
asI1027
(lp1028
I1461251585
aI1
aF0.9996650555188986
aF2588.2357279354474
asI1028
(lp1029
I1461251586
aI1
aF0.9996590248718904
aF2565.8756497520517
asI1029
(lp1030
I1461251586
aI1
aF0.9996745181656095
aF2547.1094546864915
asI1030
(lp1031
I1461251587
aI1
aF0.9997029243185943
aF2543.480525779305
asI1031
(lp1032
I1461251587
aI1
aF0.9997301047693393
aF2625.9667621710832
asI1032
(lp1033
I1461251588
aI1
aF0.9996754759414358
aF2590.6427469275222
asI1033
(lp1034
I1461251588
aI1
aF0.9996611408269405
aF2573.1695830760145
asI1034
(lp1035
I1461251589
aI1
aF0.9996585613828406
aF2525.942012859159
asI1035
(lp1036
I1461251589
aI1
aF0.9997261565043316
aF2606.5578372066375
asI1036
(lp1037
I1461251590
aI1
aF0.9996411772931726
aF2575.114114073658
asI1037
(lp1038
I1461251590
aI1
aF0.9996688642454864
aF2564.926660286699
asI1038
(lp1039
I1461251591
aI1
aF0.9997203356383206
aF2621.093403939667
asI1039
(lp1040
I1461251591
aI1
aF0.9997269495711432
aF2567.3384540633415
asI1040
(lp1041
I1461251592
aI1
aF0.99972017820964
aF2578.9049927510787
asI1041
(lp1042
I1461251592
aI1
aF0.9997191300904348
aF2531.9247755600372
asI1042
(lp1043
I1461251593
aI1
aF0.9996422888932712
aF2579.3240832306765
asI1043
(lp1044
I1461251593
aI1
aF0.9997296931968458
aF2623.4045016544405
asI1044
(lp1045
I1461251593
aI1
aF0.9996477701786902
aF2599.716151168279
asI1045
(lp1046
I1461251594
aI1
aF0.9996436711457385
aF2584.4053464628814
asI1046
(lp1047
I1461251594
aI1
aF0.9996507313572018
aF2610.1893995170103
asI1047
(lp1048
I1461251595
aI1
aF0.9997214756407268
aF2584.491241492331
asI1048
(lp1049
I1461251595
aI1
aF0.9996927855741534
aF2541.5549856023863
asI1049
(lp1050
I1461251596
aI1
aF0.9997147059097267
aF2595.244795731269
asI1050
(lp1051
I1461251596
aI1
aF0.9517827273616325
aF2541.182941089457
asI1051
(lp1052
I1461251597
aI1
aF0.9997253142565995
aF2602.2957466267108
asI1052
(lp1053
I1461251597
aI1
aF0.9997010987327565
aF2617.204743862938
asI1053
(lp1054
I1461251598
aI1
aF0.9997123434702881
aF2626.3678652912204
asI1054
(lp1055
I1461251598
aI1
aF0.99970130520827
aF2577.904980962543
asI1055
(lp1056
I1461251598
aI1
aF0.9997354638829588
aF2608.3475051738787
asI1056
(lp1057
I1461251599
aI1
aF0.9996742199290943
aF2585.4166483407025
asI1057
(lp1058
I1461251599
aI1
aF0.9996950726015126
aF2591.027288670375
asI1058
(lp1059
I1461251600
aI1
aF0.9997119733454067
aF2541.024834074633
asI1059
(lp1060
I1461251600
aI1
aF0.9996694107301535
aF2605.405101939323
asI1060
(lp1061
I1461251601
aI1
aF0.9996801831537726
aF2609.4107580520213
asI1061
(lp1062
I1461251601
aI1
aF0.9997117466061917
aF2540.360887292467
asI1062
(lp1063
I1461251602
aI1
aF0.9996378112314829
aF2563.1775430026173
asI1063
(lp1064
I1461251602
aI1
aF0.9996840126203874
aF2585.9872057730245
asI1064
(lp1065
I1461251603
aI1
aF0.999649049508426
aF2566.2152439091296
asI1065
(lp1066
I1461251603
aI1
aF0.9996704078363698
aF2570.360411799629
asI1066
(lp1067
I1461251603
aI1
aF0.9996557858469185
aF2591.7327343390352
asI1067
(lp1068
I1461251604
aI1
aF0.9996474991152922
aF2598.756922835528
asI1068
(lp1069
I1461251604
aI1
aF0.9996968535367488
aF2558.082198171076
asI1069
(lp1070
I1461251605
aI1
aF0.9997276211463472
aF2613.6718851585465
asI1070
(lp1071
I1461251605
aI1
aF0.9996584261887458
aF2601.5447670503054
asI1071
(lp1072
I1461251606
aI1
aF0.999689082395178
aF2606.3105195947574
asI1072
(lp1073
I1461251606
aI1
aF0.9996421135063533
aF2541.4108428960753
asI1073
(lp1074
I1461251607
aI1
aF0.9996633754229892
aF2543.9389809072018
asI1074
(lp1075
I1461251607
aI1
aF0.9997179743459047
aF2610.401560861501
asI1075
(lp1076
I1461251608
aI1
aF0.9996446339617708
aF2550.813796057715
asI1076
(lp1077
I1461251608
aI1
aF0.9997073123275615
aF2562.8661394503433
asI1077
(lp1078
I1461251609
aI1
aF0.9997256691753402
aF2561.119292758405
asI1078
(lp1079
I1461251609
aI1
aF0.9997362731601533
aF2612.7775050744385
asI1079
(lp1080
I1461251609
aI1
aF0.9997394734192625
aF2628.412108727367
asI1080
(lp1081
I1461251610
aI1
aF0.9996917519957241
aF2577.663046892849
asI1081
(lp1082
I1461251610
aI1
aF0.999670151321598
aF2569.2112461078796
asI1082
(lp1083
I1461251611
aI1
aF0.9996386571727262
aF2566.5796994620905
asI1083
(lp1084
I1461251611
aI1
aF0.9996588315303898
aF2526.8825286161155
asI1084
(lp1085
I1461251612
aI1
aF0.9996409846903713
aF2537.3879479491734
asI1085
(lp1086
I1461251612
aI1
aF0.9996507313572018
aF2610.337073280243
asI1086
(lp1087
I1461251613
aI1
aF0.9996724340632782
aF2617.03165233403
asI1087
(lp1088
I1461251613
aI1
aF0.9996973268031283
aF2560.0039883975405
asI1088
(lp1089
I1461251614
aI1
aF0.9996604457043202
aF2532.722370846386
asI1089
(lp1090
I1461251614
aI1
aF0.9996493900136588
aF2605.931726284354
asI1090
(lp1091
I1461251614
aI1
aF0.9996939904912748
aF2546.4918251840863
asI1091
(lp1092
I1461251615
aI1
aF0.999667883345763
aF2599.942170130802
asI1092
(lp1093
I1461251615
aI1
aF0.9996511860597068
aF2536.260328392498
asI1093
(lp1094
I1461251616
aI1
aF0.9997129394640422
aF2587.3383369441144
asI1094
(lp1095
I1461251616
aI1
aF0.9996409846903713
aF2537.249951142847
asI1095
(lp1096
I1461251617
aI1
aF0.9996740066520181
aF2545.9604359338846
asI1096
(lp1097
I1461251617
aI1
aF0.9996946015231807
aF2589.80943867701
asI1097
(lp1098
I1461251618
aI1
aF0.9997319825603542
aF2591.404279144481
asI1098
(lp1099
I1461251618
aI1
aF0.9996961415535045
aF2555.7245292665757
asI1099
(lp1100
I1461251619
aI1
aF0.9997263104962185
aF2564.539643429962
asI1100
(lp1101
I1461251619
aI1
aF0.9996634978221924
aF2582.490921640303
asI1101
(lp1102
I1461251620
aI1
aF0.9997265237702253
aF2565.8334466426168
asI1102
(lp1103
I1461251620
aI1
aF0.9997299025304032
aF2581.4225465161144
asI1103
(lp1104
I1461251620
aI1
aF0.9996818916063774
aF2616.317294630542
asI1104
(lp1105
I1461251621
aI1
aF0.999661813465833
aF2614.2295490243123
asI1105
(lp1106
I1461251621
aI1
aF0.9536052432129314
aF2553.4977928266744
asI1106
(lp1107
I1461251622
aI1
aF0.9996806726845938
aF2611.787298501469
asI1107
(lp1108
I1461251623
aI1
aF0.9996698945072987
aF2568.362717458658
asI1108
(lp1109
I1461251623
aI1
aF0.9996937981813316
aF2626.502216334091
asI1109
(lp1110
I1461251624
aI1
aF0.9996392194884098
aF2568.4724156799784
asI1110
(lp1111
I1461251624
aI1
aF0.9997101410158905
aF2616.8696015549795
asI1111
(lp1112
I1461251624
aI1
aF0.9996701704748279
aF2608.194714941419
asI1112
(lp1113
I1461251625
aI1
aF0.9996666024263186
aF2594.607369340956
asI1113
(lp1114
I1461251625
aI1
aF0.9997119733454067
aF2541.106005162699
asI1114
(lp1115
I1461251626
aI1
aF0.9996985712089403
aF2606.9744897685014
asI1115
(lp1116
I1461251626
aI1
aF0.999722863906694
aF2548.001036681613
asI1116
(lp1117
I1461251627
aI1
aF0.9996411772931726
aF2575.630906212129
asI1117
(lp1118
I1461251627
aI1
aF0.9997017531787652
aF2538.879922946435
asI1118
(lp1119
I1461251628
aI1
aF0.9996936560861759
aF2585.365246807225
asI1119
(lp1120
I1461251628
aI1
aF0.9996961415535045
aF2555.706388595514
asI1120
(lp1121
I1461251628
aI1
aF0.9997326018857835
aF2594.542254064727
asI1121
(lp1122
I1461251629
aI1
aF0.9997265761764705
aF2608.1671142948762
asI1122
(lp1123
I1461251629
aI1
aF0.999675791695668
aF2552.9397213417105
asI1123
(lp1124
I1461251630
aI1
aF0.9996837069465815
aF2544.9925407271658
asI1124
(lp1125
I1461251630
aI1
aF0.9996395001542432
aF2569.331682899734
asI1125
(lp1126
I1461251631
aI1
aF0.9997151198090755
aF2555.618891168473
asI1126
(lp1127
I1461251631
aI1
aF0.9997336293354697
aF2599.9493797976756
asI1127
(lp1128
I1461251632
aI1
aF0.9996612956340657
aF2612.285333869426
asI1128
(lp1129
I1461251632
aI1
aF0.9996769735931369
aF2596.889703682973
asI1129
(lp1130
I1461251632
aI1
aF0.9997179955925926
aF2568.9604388533044
asI1130
(lp1131
I1461251633
aI1
aF0.9997063383679953
aF2599.9068308800925
asI1131
(lp1132
I1461251633
aI1
aF0.9996673718651522
aF2597.669712245639
asI1132
(lp1133
I1461251634
aI1
aF0.9996785672889199
aF2563.7793626222992
asI1133
(lp1134
I1461251634
aI1
aF0.9997186530510439
aF2571.970687908615
asI1134
(lp1135
I1461251635
aI1
aF0.9997024640068868
aF2623.9661567890435
asI1135
(lp1136
I1461251635
aI1
aF0.9997126519604228
aF2544.9494718117057
asI1136
(lp1137
I1461251636
aI1
aF0.9996454682000682
aF2553.2525850048114
asI1137
(lp1138
I1461251636
aI1
aF0.9536942889331503
aF2581.130810775154
asI1138
(lp1139
I1461251637
aI1
aF0.999663237150073
aF2581.110540956841
asI1139
(lp1140
I1461251637
aI1
aF0.9996624533140659
aF2578.043860710459
asI1140
(lp1141
I1461251637
aI1
aF0.9996716859335815
aF2575.433864534454
asI1141
(lp1142
I1461251638
aI1
aF0.9996747734711272
aF2548.6632758267806
asI1142
(lp1143
I1461251638
aI1
aF0.9997157873425501
aF2558.151346325758
asI1143
(lp1144
I1461251639
aI1
aF0.9996562817971802
aF2631.642066638233
asI1144
(lp1145
I1461251639
aI1
aF0.9996900713185244
aF2570.4939771374484
asI1145
(lp1146
I1461251639
aI1
aF0.9996312258539485
aF2540.2691799213935
asI1146
(lp1147
I1461251640
aI1
aF0.9997131030391008
aF2546.991559252725
asI1147
(lp1148
I1461251640
aI1
aF0.9997190513528025
aF2615.3907424770005
asI1148
(lp1149
I1461251641
aI1
aF0.9996869133848965
aF2557.465055336972
asI1149
(lp1150
I1461251641
aI1
aF0.9996592123697743
aF2604.7495855892194
asI1150
(lp1151
I1461251642
aI1
aF0.999718871693071
aF2572.782488562865
asI1151
(lp1152
I1461251642
aI1
aF0.9996571098292655
aF2596.802479474107
asI1152
(lp1153
I1461251643
aI1
aF0.9996721950919992
aF2577.0747795391508
asI1153
(lp1154
I1461251643
aI1
aF0.999718215001202
aF2569.9259309787594
asI1154
(lp1155
I1461251644
aI1
aF0.9997256691753402
aF2561.382700409158
asI1155
(lp1156
I1461251644
aI1
aF0.9996947100426207
aF2549.189173056613
asI1156
(lp1157
I1461251645
aI1
aF0.9996935649475153
aF2625.1767842950067
asI1157
(lp1158
I1461251645
aI1
aF0.9997294836198676
aF2579.075453897909
asI1158
(lp1159
I1461251645
aI1
aF0.9996641290788502
aF2623.5177632963896
asI1159
(lp1160
I1461251646
aI1
aF0.9997070148400274
aF2602.884245807669
asI1160
(lp1161
I1461251646
aI1
aF0.9997124952895716
aF2585.390833837155
asI1161
(lp1162
I1461251647
aI1
aF0.9997126519604228
aF2544.2696317995724
asI1162
(lp1163
I1461251647
aI1
aF0.9996680883811437
aF2561.0310609008884
asI1163
(lp1164
I1461251648
aI1
aF0.9996666742024107
aF2633.2075553378672
asI1164
(lp1165
I1461251648
aI1
aF0.9997243797535206
aF2555.3446528221684
asI1165
(lp1166
I1461251648
aI1
aF0.9997029243185943
aF2543.1031178429257
asI1166
(lp1167
I1461251649
aI1
aF0.999661036272135
aF2611.2777528034494
asI1167
(lp1168
I1461251649
aI1
aF0.9997171153909217
aF2564.524934033747
asI1168
(lp1169
I1461251650
aI1
aF0.9555019667206309
aF2614.555688053515
asI1169
(lp1170
I1461251650
aI1
aF0.9997186212914889
aF2613.5838136696693
asI1170
(lp1171
I1461251651
aI1
aF0.9996309354698597
aF2539.117061398749
asI1171
(lp1172
I1461251651
aI1
aF0.9997263104962185
aF2564.550101888395
asI1172
(lp1173
I1461251652
aI1
aF0.9996796924965876
aF2607.799350741421
asI1173
(lp1174
I1461251652
aI1
aF0.9996881261736834
aF2602.002216257213
asI1174
(lp1175
I1461251653
aI1
aF0.9997214756407268
aF2584.153555419587
asI1175
(lp1176
I1461251653
aI1
aF0.9997199085232182
aF2619.6326522459713
asI1176
(lp1177
I1461251654
aI1
aF0.9997356665510776
aF2609.127419790777
asI1177
(lp1178
I1461251654
aI1
aF0.999703837823189
aF2588.425079912515
asI1178
(lp1179
I1461251655
aI1
aF0.9997354638829588
aF2608.3993440338236
asI1179
(lp1180
I1461251655
aI1
aF0.9997111565639453
aF2579.8258902607777
asI1180
(lp1181
I1461251656
aI1
aF0.9996628455736941
aF2541.171234508569
asI1181
(lp1182
I1461251656
aI1
aF0.9996539193528471
aF2546.113426949247
asI1182
(lp1183
I1461251657
aI1
aF0.9997255251823934
aF2603.4689958281815
asI1183
(lp1184
I1461251657
aI1
aF0.9996907452347202
aF2613.138315545133
asI1184
(lp1185
I1461251658
aI1
aF0.9551646073013883
aF2597.0617949373554
asI1185
(lp1186
I1461251658
aI1
aF0.9997303102032238
aF2626.7371255154285
asI1186
(lp1187
I1461251658
aI1
aF0.9996961415535045
aF2555.830282733674
asI1187
(lp1188
I1461251659
aI1
aF0.9997277981954311
aF2571.5940082598536
asI1188
(lp1189
I1461251659
aI1
aF0.9997184341538865
aF2570.660437830258
asI1189
(lp1190
I1461251660
aI1
aF0.9996779662762867
aF2600.6391004962497
asI1190
(lp1191
I1461251660
aI1
aF0.9996815547583817
aF2575.2630029649154
asI1191
(lp1192
I1461251661
aI1
aF0.999645745626897
aF2554.8407963955688
asI1192
(lp1193
I1461251661
aI1
aF0.9996474033711603
aF2560.0859650960047
asI1193
(lp1194
I1461251661
aI1
aF0.9996595557145252
aF2567.939533615354
asI1194
(lp1195
I1461251662
aI1
aF0.9996503597569608
aF2533.6661748047627
asI1195
(lp1196
I1461251662
aI1
aF0.9996485020789726
aF2564.885068876465
asI1196
(lp1197
I1461251663
aI1
aF0.9996504637048897
aF2609.8297938534233
asI1197
(lp1198
I1461251663
aI1
aF0.9997103623974031
aF2617.7853148785653
asI1198
(lp1199
I1461251664
aI1
aF0.9997273743785157
aF2569.3259147464414
asI1199
(lp1200
I1461251664
aI1
aF0.9997133281802931
aF2547.4520758588915
asI1200
(lp1201
I1461251665
aI1
aF0.9996709276039248
aF2611.6934266079916
asI1201
(lp1202
I1461251665
aI1
aF0.9996487759536541
aF2565.808701594913
asI1202
(lp1203
I1461251665
aI1
aF0.9996612484994937
aF2535.887851914391
asI1203
(lp1204
I1461251666
aI1
aF0.999695188334691
aF2551.223929189844
asI1204
(lp1205
I1461251666
aI1
aF0.9997090302924078
aF2611.7100017151097
asI1205
(lp1206
I1461251667
aI1
aF0.9996644313820242
aF2547.9851247820625
asI1206
(lp1207
I1461251667
aI1
aF0.9996966164872584
aF2557.201688070927
asI1207
(lp1208
I1461251667
aI1
aF0.9997263664610692
aF2607.3067016939167
asI1208
(lp1209
I1461251668
aI1
aF0.9996478631582324
aF2524.874969910772
asI1209
(lp1210
I1461251668
aI1
aF0.9997232982791523
aF2550.874258875847
asI1210
(lp1211
I1461251669
aI1
aF0.9996851929314211
aF2550.947647730558
asI1211
(lp1212
I1461251669
aI1
aF0.9996994428493206
aF2569.2257509741466
asI1212
(lp1213
I1461251670
aI1
aF0.9997070838104171
aF2561.428957531316
asI1213
(lp1214
I1461251670
aI1
aF0.9997265237702253
aF2565.0656424017216
asI1214
(lp1215
I1461251670
aI1
aF0.9997229779393438
aF2591.088767800422
asI1215
(lp1216
I1461251671
aI1
aF0.9996361104142593
aF2557.2009178247827
asI1216
(lp1217
I1461251671
aI1
aF0.99968884375245
aF2605.201806063502
asI1217
(lp1218
I1461251672
aI1
aF0.9996714309094812
aF2574.2248484260635
asI1218
(lp1219
I1461251672
aI1
aF0.9996704231412198
aF2609.0260591464175
asI1219
(lp1220
I1461251673
aI1
aF0.9996468520847799
aF2558.632673527929
asI1220
(lp1221
I1461251673
aI1
aF0.9996550036831298
aF2550.482073896943
asI1221
(lp1222
I1461251674
aI1
aF0.9997323956826758
aF2593.1216421067948
asI1222
(lp1223
I1461251674
aI1
aF0.9997008702738351
aF2616.9195555197366
asI1223
(lp1224
I1461251674
aI1
aF0.999686200451357
aF2594.5820698392345
asI1224
(lp1225
I1461251675
aI1
aF0.9996931817207312
aF2583.7706957181363
asI1225
(lp1226
I1461251675
aI1
aF0.999721554635482
aF2542.635581286595
asI1226
(lp1227
I1461251676
aI1
aF0.9996804280597631
aF2610.203286851174
asI1227
(lp1228
I1461251676
aI1
aF0.9996719330614249
aF2615.0528149772435
asI1228
(lp1229
I1461251677
aI1
aF0.999735260981699
aF2607.1202255575918
asI1229
(lp1230
I1461251677
aI1
aF0.9997122728156972
aF2584.620126036025
asI1230
(lp1231
I1461251678
aI1
aF0.9997015181199904
aF2537.056337936665
asI1231
(lp1232
I1461251678
aI1
aF0.9996716821294342
aF2614.239350216725
asI1232
(lp1233
I1461251678
aI1
aF0.9997049428348969
aF2634.497002241769
asI1233
(lp1234
I1461251679
aI1
aF0.9997231915609739
aF2592.0670414863853
asI1234
(lp1235
I1461251680
aI1
aF0.9996506841467808
aF2572.375109454515
asI1235
(lp1236
I1461251680
aI1
aF0.9996478631582324
aF2524.0068895640434
asI1236
(lp1237
I1461251681
aI1
aF0.9996800662533073
aF2569.279059348628
asI1237
(lp1238
I1461251681
aI1
aF0.9996935093763832
aF2544.417842222145
asI1238
(lp1239
I1461251682
aI1
aF0.9997244681177272
aF2598.3943488816294
asI1239
(lp1240
I1461251682
aI1
aF0.9996796924965876
aF2607.441688634208
asI1240
(lp1241
I1461251683
aI1
aF0.9997232982791523
aF2550.361614489564
asI1241
(lp1242
I1461251683
aI1
aF0.9997164561028269
aF2603.951107429064
asI1242
(lp1243
I1461251684
aI1
aF0.9997098084674824
aF2573.5717323891004
asI1243
(lp1244
I1461251684
aI1
aF0.9996557858469185
aF2591.9386118874536
asI1244
(lp1245
I1461251685
aI1
aF0.9996636165575995
aF2621.9574945321365
asI1245
(lp1246
I1461251685
aI1
aF0.9997153641259977
aF2598.8710913838877
asI1246
(lp1247
I1461251686
aI1
aF0.9997235150825737
aF2551.055571870369
asI1247
(lp1248
I1461251686
aI1
aF0.9996450454032103
aF2589.8367326683074
asI1248
(lp1249
I1461251687
aI1
aF0.9997294836198676
aF2579.064137077672
asI1249
(lp1250
I1461251687
aI1
aF0.9996959036683699
aF2554.3138185307616
asI1250
(lp1251
I1461251688
aI1
aF0.9996804280597631
aF2610.108411613066
asI1251
(lp1252
I1461251688
aI1
aF0.9996907932874728
aF2573.7405995131703
asI1252
(lp1253
I1461251689
aI1
aF0.9996755375882233
aF2551.8497262754245
asI1253
(lp1254
I1461251689
aI1
aF0.9996612484994937
aF2535.4626331654144
asI1254
(lp1255
I1461251690
aI1
aF0.999674974409454
aF2588.0142187604215
asI1255
(lp1256
I1461251690
aI1
aF0.9997292737990907
aF2578.6787935515167
asI1256
(lp1257
I1461251691
aI1
aF0.9997091308778362
aF2570.0829575216485
asI1257
(lp1258
I1461251691
aI1
aF0.9996431192076166
aF2582.4869148148427
asI1258
(lp1259
I1461251692
aI1
aF0.9542764421829205
aF2589.352118592389
asI1259
(lp1260
I1461251693
aI1
aF0.9997068550255834
aF2560.3716757959337
asI1260
(lp1261
I1461251693
aI1
aF0.9996453193007302
aF2590.2348962251854
asI1261
(lp1262
I1461251694
aI1
aF0.9996709120992681
aF2533.7032151513267
asI1262
(lp1263
I1461251694
aI1
aF0.999649049508426
aF2566.6479647806846
asI1263
(lp1264
I1461251695
aI1
aF0.9996795677654835
aF2567.4708138322458
asI1264
(lp1265
I1461251695
aI1
aF0.9996832782576622
aF2582.580092322314
asI1265
(lp1266
I1461251696
aI1
aF0.999731741696243
aF2633.984888424864
asI1266
(lp1267
I1461251696
aI1
aF0.9997259463058872
aF2605.470306709947
asI1267
(lp1268
I1461251697
aI1
aF0.9997213991621825
aF2626.794035990577
asI1268
(lp1269
I1461251697
aI1
aF0.9997284320704231
aF2574.2387910185644
asI1269
(lp1270
I1461251698
aI1
aF0.9996549877740305
aF2588.928750574589
asI1270
(lp1271
I1461251698
aI1
aF0.999680315061192
aF2570.818354744377
asI1271
(lp1272
I1461251699
aI1
aF0.999652829903302
aF2542.779232481116
asI1272
(lp1273
I1461251699
aI1
aF0.9996996276064792
aF2529.8541767749703
asI1273
(lp1274
I1461251700
aI1
aF0.9996375285909567
aF2562.766799122619
asI1274
(lp1275
I1461251700
aI1
aF0.999657692321566
aF2560.7166300443932
asI1275
(lp1276
I1461251701
aI1
aF0.9996294783927243
aF2534.595907298615
asI1276
(lp1277
I1461251701
aI1
aF0.9996747232074351
aF2587.208945335922
asI1277
(lp1278
I1461251702
aI1
aF0.9996520650193252
aF2615.7790320308704
asI1278
(lp1279
I1461251702
aI1
aF0.9997058860844109
aF2597.7086479866557
asI1279
(lp1280
I1461251703
aI1
aF0.9530277216505243
aF2577.2850671730557
asI1280
(lp1281
I1461251703
aI1
aF0.9997274126320961
aF2612.197284982627
asI1281
(lp1282
I1461251704
aI1
aF0.9996343975906392
aF2551.0388215340354
asI1282
(lp1283
I1461251704
aI1
aF0.9996297704975172
aF2535.969014641538
asI1283
(lp1284
I1461251705
aI1
aF0.9997140454079672
aF2592.7296630465426
asI1284
(lp1285
I1461251705
aI1
aF0.9997250255979732
aF2558.277131467068
asI1285
(lp1286
I1461251706
aI1
aF0.9997179955925926
aF2568.083884936059
asI1286
(lp1287
I1461251706
aI1
aF0.9532332532028032
aF2561.0420389758074
asI1287
(lp1288
I1461251707
aI1
aF0.9996794467445288
aF2606.833097239738
asI1288
(lp1289
I1461251707
aI1
aF0.9997370787298577
aF2616.0541622847522
asI1289
(lp1290
I1461251708
aI1
aF0.9996831035633404
aF2621.8750981022604
asI1290
(lp1291
I1461251709
aI1
aF0.9997317756404036
aF2590.6743905516487
asI1291
(lp1292
I1461251709
aI1
aF0.999677562120149
aF2559.0474188007647
asI1292
(lp1293
I1461251710
aI1
aF0.953927422926929
aF2588.991438355166
asI1293
(lp1294
I1461251710
aI1
aF0.9996987399725581
aF2566.621679844655
asI1294
(lp1295
I1461251711
aI1
aF0.9996557858469185
aF2591.5577195562073
asI1295
(lp1296
I1461251711
aI1
aF0.999678213732208
aF2601.036659641104
asI1296
(lp1297
I1461251712
aI1
aF0.9997094753465416
aF2613.7626818634744
asI1297
(lp1298
I1461251712
aI1
aF0.9996795677654835
aF2567.8838257511816
asI1298
(lp1299
I1461251713
aI1
aF0.9997081371110982
aF2607.1169919405074
asI1299
(lp1300
I1461251714
aI1
aF0.9997162310624242
aF2560.5144023464527
asI1300
(lp1301
I1461251714
aI1
aF0.9996970903085609
aF2559.5685516836675
asI1301
(lp1302
I1461251715
aI1
aF0.999713777668465
aF2549.111125886586
asI1302
(lp1303
I1461251715
aI1
aF0.9997098084674824
aF2573.06610639923
asI1303
(lp1304
I1461251716
aI1
aF0.99969972404139
aF2611.70623381302
asI1304
(lp1305
I1461251716
aI1
aF0.9996778138538391
aF2560.684646227106
asI1305
(lp1306
I1461251717
aI1
aF0.9996625801798855
aF2540.9232177380327
asI1306
(lp1307
I1461251717
aI1
aF0.9996857162343221
aF2592.7458048425615
asI1307
(lp1308
I1461251718
aI1
aF0.9997199085232182
aF2619.908072303704
asI1308
(lp1309
I1461251719
aI1
aF0.9996721950919992
aF2577.2907233379083
asI1309
(lp1310
I1461251719
aI1
aF0.9996919909762111
aF2578.821011156062
asI1310
(lp1311
I1461251720
aI1
aF0.9997210441679886
aF2582.799161531846
asI1311
(lp1312
I1461251720
aI1
aF0.9997374801314735
aF2618.8746532260266
asI1312
(lp1313
I1461251721
aI1
aF0.9997133826101271
aF2589.6483995858
asI1313
(lp1314
I1461251721
aI1
aF0.999723081220659
aF2549.714864618203
asI1314
(lp1315
I1461251722
aI1
aF0.9997151449738658
aF2597.922452426632
asI1315
(lp1316
I1461251722
aI1
aF0.999708450912532
aF2567.9830981365085
asI1316
(lp1317
I1461251723
aI1
aF0.9997082237275872
aF2566.8065073787147
asI1317
(lp1318
I1461251724
aI1
aF0.9996999100683369
aF2571.6785901595285
asI1318
(lp1319
I1461251724
aI1
aF0.9996283065103801
aF2530.6514033053245
asI1319
(lp1320
I1461251725
aI1
aF0.9550966282131552
aF2582.959359594388
asI1320
(lp1321
I1461251725
aI1
aF0.9996598206711725
aF2568.1599375036894
asI1321
(lp1322
I1461251726
aI1
aF0.9997049428348969
aF2634.6432175522204
asI1322
(lp1323
I1461251727
aI1
aF0.9996994428493206
aF2569.6373651859612
asI1323
(lp1324
I1461251727
aI1
aF0.9996788178468126
aF2564.24159128638
asI1324
(lp1325
I1461251728
aI1
aF0.9996451904472784
aF2552.67679030585
asI1325
(lp1326
I1461251729
aI1
aF0.9997111565639453
aF2579.1567961832334
asI1326
(lp1327
I1461251729
aI1
aF0.9997166737441362
aF2604.596506007656
asI1327
(lp1328
I1461251729
aI1
aF0.9996477701786902
aF2599.6099122169835
asI1328
(lp1329
I1461251730
aI1
aF0.9996380935416102
aF2564.8856697127485
asI1329
(lp1330
I1461251731
aI1
aF0.9996729566120577
aF2580.8940959360043
asI1330
(lp1331
I1461251731
aI1
aF0.9996844512508798
aF2547.826340485364
asI1331
(lp1332
I1461251732
aI1
aF0.9996520650193252
aF2615.058861318583
asI1332
(lp1333
I1461251732
aI1
aF0.9996531147772106
aF2581.8625007391092
asI1333
(lp1334
I1461251733
aI1
aF0.9996792007095814
aF2605.3177927729557
asI1334
(lp1335
I1461251733
aI1
aF0.999670151321598
aF2569.7018496217206
asI1335
(lp1336
I1461251734
aI1
aF0.9997093570044665
aF2571.3194764633663
asI1336
(lp1337
I1461251734
aI1
aF0.9996963791596553
aF2556.0567858582654
asI1337
(lp1338
I1461251735
aI1
aF0.9551562986366594
aF2629.6904465880943
asI1338
(lp1339
I1461251735
aI1
aF0.9996422888932712
aF2579.9158487990935
asI1339
(lp1340
I1461251736
aI1
aF0.999669664269741
aF2606.450982580427
asI1340
(lp1341
I1461251736
aI1
aF0.9997195260923311
aF2575.0570103694336
asI1341
(lp1342
I1461251737
aI1
aF0.9997195260923311
aF2575.724733063689
asI1342
(lp1343
I1461251737
aI1
aF0.9996851929314211
aF2550.6016176725097
asI1343
(lp1344
I1461251738
aI1
aF0.9996938928565263
aF2586.3631956679747
asI1344
(lp1345
I1461251738
aI1
aF0.9996404182789523
aF2535.0103168141213
asI1345
(lp1346
I1461251739
aI1
aF0.9552637602335232
aF2613.7277138463833
asI1346
(lp1347
I1461251739
aI1
aF0.9996673097872361
aF2558.9610149092914
asI1347
(lp1348
I1461251740
aI1
aF0.9553478153334376
aF2593.5103939687833
asI1348
(lp1349
I1461251740
aI1
aF0.9997068550255834
aF2560.4850974388537
asI1349
(lp1350
I1461251741
aI1
aF0.9996563163583622
aF2593.083516450395
asI1350
(lp1351
I1461251741
aI1
aF0.999723081220659
aF2549.0349580551265
asI1351
(lp1352
I1461251742
aI1
aF0.9540150165606752
aF2562.244139752729
asI1352
(lp1353
I1461251743
aI1
aF0.999635255510296
aF2554.636215471168
asI1353
(lp1354
I1461251743
aI1
aF0.9997260969726618
aF2563.8225651805988
asI1354
(lp1355
I1461251744
aI1
aF0.9997140020162743
aF2550.2162310599233
asI1355
(lp1356
I1461251744
aI1
aF0.9997326018857835
aF2594.5856411998684
asI1356
(lp1357
I1461251744
aI1
aF0.9996907932874728
aF2573.066295770521
asI1357
(lp1358
I1461251745
aI1
aF0.9997237316313231
aF2552.963534104172
asI1358
(lp1359
I1461251745
aI1
aF0.9996586885510467
aF2602.0730942711234
asI1359
(lp1360
I1461251746
aI1
aF0.9996436711457385
aF2584.843132780734
asI1360
(lp1361
I1461251746
aI1
aF0.9996528459618614
aF2580.1903269748727
asI1361
(lp1362
I1461251747
aI1
aF0.9996461390941579
aF2593.84080193282
asI1362
(lp1363
I1461251747
aI1
aF0.9997205488296522
aF2622.2037091006932
asI1363
(lp1364
I1461251748
aI1
aF0.9997214756407268
aF2584.124379165325
asI1364
(lp1365
I1461251748
aI1
aF0.9996464117272149
aF2594.4916460304376
asI1365
(lp1366
I1461251749
aI1
aF0.9997250255979732
aF2558.9667119286605
asI1366
(lp1367
I1461251749
aI1
aF0.9996793180846388
aF2566.378128514174
asI1367
(lp1368
I1461251750
aI1
aF0.9996312258539485
aF2540.9067373219295
asI1368
(lp1369
I1461251750
aI1
aF0.9997346508754915
aF2604.8133661603206
asI1369
(lp1370
I1461251751
aI1
aF0.9996378112314829
aF2563.665370372066
asI1370
(lp1371
I1461251751
aI1
aF0.999653383280503
aF2582.774129754456
asI1371
(lp1372
I1461251752
aI1
aF0.999664796654738
aF2587.127526814729
as.